
c1m2.out:     file format pei-i386


Disassembly of section .text:

00401000 <.text>:
  401000:	83 ec 1c             	sub    $0x1c,%esp
  401003:	8b 44 24 20          	mov    0x20(%esp),%eax
  401007:	8b 00                	mov    (%eax),%eax
  401009:	8b 00                	mov    (%eax),%eax
  40100b:	3d 91 00 00 c0       	cmp    $0xc0000091,%eax
  401010:	77 4e                	ja     401060 <.text+0x60>
  401012:	3d 8d 00 00 c0       	cmp    $0xc000008d,%eax
  401017:	73 60                	jae    401079 <.text+0x79>
  401019:	3d 05 00 00 c0       	cmp    $0xc0000005,%eax
  40101e:	0f 85 cc 00 00 00    	jne    4010f0 <.text+0xf0>
  401024:	c7 44 24 04 00 00 00 	movl   $0x0,0x4(%esp)
  40102b:	00 
  40102c:	c7 04 24 0b 00 00 00 	movl   $0xb,(%esp)
  401033:	e8 f0 7d 00 00       	call   408e28 <_signal>
  401038:	83 f8 01             	cmp    $0x1,%eax
  40103b:	0f 84 41 01 00 00    	je     401182 <.text+0x182>
  401041:	85 c0                	test   %eax,%eax
  401043:	0f 85 e7 00 00 00    	jne    401130 <.text+0x130>
  401049:	8d b4 26 00 00 00 00 	lea    0x0(%esi,%eiz,1),%esi
  401050:	31 c0                	xor    %eax,%eax
  401052:	83 c4 1c             	add    $0x1c,%esp
  401055:	c2 04 00             	ret    $0x4
  401058:	90                   	nop
  401059:	8d b4 26 00 00 00 00 	lea    0x0(%esi,%eiz,1),%esi
  401060:	3d 94 00 00 c0       	cmp    $0xc0000094,%eax
  401065:	74 49                	je     4010b0 <.text+0xb0>
  401067:	3d 96 00 00 c0       	cmp    $0xc0000096,%eax
  40106c:	0f 84 89 00 00 00    	je     4010fb <.text+0xfb>
  401072:	3d 93 00 00 c0       	cmp    $0xc0000093,%eax
  401077:	75 d7                	jne    401050 <.text+0x50>
  401079:	c7 44 24 04 00 00 00 	movl   $0x0,0x4(%esp)
  401080:	00 
  401081:	c7 04 24 08 00 00 00 	movl   $0x8,(%esp)
  401088:	e8 9b 7d 00 00       	call   408e28 <_signal>
  40108d:	83 f8 01             	cmp    $0x1,%eax
  401090:	0f 84 ad 00 00 00    	je     401143 <.text+0x143>
  401096:	85 c0                	test   %eax,%eax
  401098:	74 b6                	je     401050 <.text+0x50>
  40109a:	c7 04 24 08 00 00 00 	movl   $0x8,(%esp)
  4010a1:	ff d0                	call   *%eax
  4010a3:	b8 ff ff ff ff       	mov    $0xffffffff,%eax
  4010a8:	eb a8                	jmp    401052 <.text+0x52>
  4010aa:	8d b6 00 00 00 00    	lea    0x0(%esi),%esi
  4010b0:	c7 44 24 04 00 00 00 	movl   $0x0,0x4(%esp)
  4010b7:	00 
  4010b8:	c7 04 24 08 00 00 00 	movl   $0x8,(%esp)
  4010bf:	e8 64 7d 00 00       	call   408e28 <_signal>
  4010c4:	83 f8 01             	cmp    $0x1,%eax
  4010c7:	75 cd                	jne    401096 <.text+0x96>
  4010c9:	c7 44 24 04 01 00 00 	movl   $0x1,0x4(%esp)
  4010d0:	00 
  4010d1:	c7 04 24 08 00 00 00 	movl   $0x8,(%esp)
  4010d8:	e8 4b 7d 00 00       	call   408e28 <_signal>
  4010dd:	b8 ff ff ff ff       	mov    $0xffffffff,%eax
  4010e2:	e9 6b ff ff ff       	jmp    401052 <.text+0x52>
  4010e7:	89 f6                	mov    %esi,%esi
  4010e9:	8d bc 27 00 00 00 00 	lea    0x0(%edi,%eiz,1),%edi
  4010f0:	3d 1d 00 00 c0       	cmp    $0xc000001d,%eax
  4010f5:	0f 85 55 ff ff ff    	jne    401050 <.text+0x50>
  4010fb:	c7 44 24 04 00 00 00 	movl   $0x0,0x4(%esp)
  401102:	00 
  401103:	c7 04 24 04 00 00 00 	movl   $0x4,(%esp)
  40110a:	e8 19 7d 00 00       	call   408e28 <_signal>
  40110f:	83 f8 01             	cmp    $0x1,%eax
  401112:	74 52                	je     401166 <.text+0x166>
  401114:	85 c0                	test   %eax,%eax
  401116:	0f 84 34 ff ff ff    	je     401050 <.text+0x50>
  40111c:	c7 04 24 04 00 00 00 	movl   $0x4,(%esp)
  401123:	ff d0                	call   *%eax
  401125:	b8 ff ff ff ff       	mov    $0xffffffff,%eax
  40112a:	e9 23 ff ff ff       	jmp    401052 <.text+0x52>
  40112f:	90                   	nop
  401130:	c7 04 24 0b 00 00 00 	movl   $0xb,(%esp)
  401137:	ff d0                	call   *%eax
  401139:	b8 ff ff ff ff       	mov    $0xffffffff,%eax
  40113e:	e9 0f ff ff ff       	jmp    401052 <.text+0x52>
  401143:	c7 44 24 04 01 00 00 	movl   $0x1,0x4(%esp)
  40114a:	00 
  40114b:	c7 04 24 08 00 00 00 	movl   $0x8,(%esp)
  401152:	e8 d1 7c 00 00       	call   408e28 <_signal>
  401157:	e8 d4 09 00 00       	call   401b30 <__fpreset>
  40115c:	b8 ff ff ff ff       	mov    $0xffffffff,%eax
  401161:	e9 ec fe ff ff       	jmp    401052 <.text+0x52>
  401166:	c7 44 24 04 01 00 00 	movl   $0x1,0x4(%esp)
  40116d:	00 
  40116e:	c7 04 24 04 00 00 00 	movl   $0x4,(%esp)
  401175:	e8 ae 7c 00 00       	call   408e28 <_signal>
  40117a:	83 c8 ff             	or     $0xffffffff,%eax
  40117d:	e9 d0 fe ff ff       	jmp    401052 <.text+0x52>
  401182:	c7 44 24 04 01 00 00 	movl   $0x1,0x4(%esp)
  401189:	00 
  40118a:	c7 04 24 0b 00 00 00 	movl   $0xb,(%esp)
  401191:	e8 92 7c 00 00       	call   408e28 <_signal>
  401196:	83 c8 ff             	or     $0xffffffff,%eax
  401199:	e9 b4 fe ff ff       	jmp    401052 <.text+0x52>
  40119e:	66 90                	xchg   %ax,%ax
  4011a0:	53                   	push   %ebx
  4011a1:	83 ec 18             	sub    $0x18,%esp
  4011a4:	a1 6c b0 40 00       	mov    0x40b06c,%eax
  4011a9:	85 c0                	test   %eax,%eax
  4011ab:	74 1c                	je     4011c9 <.text+0x1c9>
  4011ad:	c7 44 24 08 00 00 00 	movl   $0x0,0x8(%esp)
  4011b4:	00 
  4011b5:	c7 44 24 04 02 00 00 	movl   $0x2,0x4(%esp)
  4011bc:	00 
  4011bd:	c7 04 24 00 00 00 00 	movl   $0x0,(%esp)
  4011c4:	ff d0                	call   *%eax
  4011c6:	83 ec 0c             	sub    $0xc,%esp
  4011c9:	c7 04 24 00 10 40 00 	movl   $0x401000,(%esp)
  4011d0:	e8 2b 7d 00 00       	call   408f00 <_SetUnhandledExceptionFilter@4>
  4011d5:	83 ec 04             	sub    $0x4,%esp
  4011d8:	e8 73 08 00 00       	call   401a50 <___cpu_features_init>
  4011dd:	e8 4e 09 00 00       	call   401b30 <__fpreset>
  4011e2:	e8 e9 04 00 00       	call   4016d0 <__setargv>
  4011e7:	a1 20 e0 40 00       	mov    0x40e020,%eax
  4011ec:	85 c0                	test   %eax,%eax
  4011ee:	74 42                	je     401232 <.text+0x232>
  4011f0:	8b 1d d8 f1 40 00    	mov    0x40f1d8,%ebx
  4011f6:	a3 08 a0 40 00       	mov    %eax,0x40a008
  4011fb:	89 44 24 04          	mov    %eax,0x4(%esp)
  4011ff:	8b 43 10             	mov    0x10(%ebx),%eax
  401202:	89 04 24             	mov    %eax,(%esp)
  401205:	e8 8e 7c 00 00       	call   408e98 <__setmode>
  40120a:	a1 20 e0 40 00       	mov    0x40e020,%eax
  40120f:	89 44 24 04          	mov    %eax,0x4(%esp)
  401213:	8b 43 30             	mov    0x30(%ebx),%eax
  401216:	89 04 24             	mov    %eax,(%esp)
  401219:	e8 7a 7c 00 00       	call   408e98 <__setmode>
  40121e:	a1 20 e0 40 00       	mov    0x40e020,%eax
  401223:	89 44 24 04          	mov    %eax,0x4(%esp)
  401227:	8b 43 50             	mov    0x50(%ebx),%eax
  40122a:	89 04 24             	mov    %eax,(%esp)
  40122d:	e8 66 7c 00 00       	call   408e98 <__setmode>
  401232:	e8 89 7c 00 00       	call   408ec0 <___p__fmode>
  401237:	8b 15 08 a0 40 00    	mov    0x40a008,%edx
  40123d:	89 10                	mov    %edx,(%eax)
  40123f:	e8 ec 0d 00 00       	call   402030 <__pei386_runtime_relocator>
  401244:	83 e4 f0             	and    $0xfffffff0,%esp
  401247:	e8 74 09 00 00       	call   401bc0 <___main>
  40124c:	e8 77 7c 00 00       	call   408ec8 <___p__environ>
  401251:	8b 00                	mov    (%eax),%eax
  401253:	89 44 24 08          	mov    %eax,0x8(%esp)
  401257:	a1 00 e0 40 00       	mov    0x40e000,%eax
  40125c:	89 44 24 04          	mov    %eax,0x4(%esp)
  401260:	a1 04 e0 40 00       	mov    0x40e004,%eax
  401265:	89 04 24             	mov    %eax,(%esp)
  401268:	e8 fc 01 00 00       	call   401469 <_main>
  40126d:	89 c3                	mov    %eax,%ebx
  40126f:	e8 44 7c 00 00       	call   408eb8 <__cexit>
  401274:	89 1c 24             	mov    %ebx,(%esp)
  401277:	e8 fc 7c 00 00       	call   408f78 <_ExitProcess@4>
  40127c:	8d 74 26 00          	lea    0x0(%esi,%eiz,1),%esi

00401280 <__mingw32_init_mainargs>:
  401280:	83 ec 3c             	sub    $0x3c,%esp
  401283:	8d 44 24 2c          	lea    0x2c(%esp),%eax
  401287:	c7 44 24 04 00 e0 40 	movl   $0x40e000,0x4(%esp)
  40128e:	00 
  40128f:	c7 04 24 04 e0 40 00 	movl   $0x40e004,(%esp)
  401296:	c7 44 24 2c 00 00 00 	movl   $0x0,0x2c(%esp)
  40129d:	00 
  40129e:	89 44 24 10          	mov    %eax,0x10(%esp)
  4012a2:	a1 04 a0 40 00       	mov    0x40a004,%eax
  4012a7:	83 e0 01             	and    $0x1,%eax
  4012aa:	89 44 24 0c          	mov    %eax,0xc(%esp)
  4012ae:	8d 44 24 28          	lea    0x28(%esp),%eax
  4012b2:	89 44 24 08          	mov    %eax,0x8(%esp)
  4012b6:	e8 15 7c 00 00       	call   408ed0 <___getmainargs>
  4012bb:	83 c4 3c             	add    $0x3c,%esp
  4012be:	c3                   	ret    
  4012bf:	90                   	nop

004012c0 <_mainCRTStartup>:
  4012c0:	83 ec 1c             	sub    $0x1c,%esp
  4012c3:	c7 04 24 01 00 00 00 	movl   $0x1,(%esp)
  4012ca:	ff 15 c8 f1 40 00    	call   *0x40f1c8
  4012d0:	e8 cb fe ff ff       	call   4011a0 <.text+0x1a0>
  4012d5:	8d 74 26 00          	lea    0x0(%esi,%eiz,1),%esi
  4012d9:	8d bc 27 00 00 00 00 	lea    0x0(%edi,%eiz,1),%edi

004012e0 <_WinMainCRTStartup>:
  4012e0:	83 ec 1c             	sub    $0x1c,%esp
  4012e3:	c7 04 24 02 00 00 00 	movl   $0x2,(%esp)
  4012ea:	ff 15 c8 f1 40 00    	call   *0x40f1c8
  4012f0:	e8 ab fe ff ff       	call   4011a0 <.text+0x1a0>
  4012f5:	8d 74 26 00          	lea    0x0(%esi,%eiz,1),%esi
  4012f9:	8d bc 27 00 00 00 00 	lea    0x0(%edi,%eiz,1),%edi

00401300 <_atexit>:
  401300:	ff 25 f0 f1 40 00    	jmp    *0x40f1f0
  401306:	8d 76 00             	lea    0x0(%esi),%esi
  401309:	8d bc 27 00 00 00 00 	lea    0x0(%edi,%eiz,1),%edi

00401310 <__onexit>:
  401310:	ff 25 e0 f1 40 00    	jmp    *0x40f1e0
  401316:	90                   	nop
  401317:	90                   	nop
  401318:	90                   	nop
  401319:	90                   	nop
  40131a:	90                   	nop
  40131b:	90                   	nop
  40131c:	90                   	nop
  40131d:	90                   	nop
  40131e:	90                   	nop
  40131f:	90                   	nop

00401320 <___gcc_register_frame>:
  401320:	55                   	push   %ebp
  401321:	89 e5                	mov    %esp,%ebp
  401323:	56                   	push   %esi
  401324:	53                   	push   %ebx
  401325:	83 ec 10             	sub    $0x10,%esp
  401328:	c7 04 24 00 b0 40 00 	movl   $0x40b000,(%esp)
  40132f:	e8 0c 7c 00 00       	call   408f40 <_GetModuleHandleA@4>
  401334:	83 ec 04             	sub    $0x4,%esp
  401337:	85 c0                	test   %eax,%eax
  401339:	0f 84 b1 00 00 00    	je     4013f0 <___gcc_register_frame+0xd0>
  40133f:	c7 04 24 00 b0 40 00 	movl   $0x40b000,(%esp)
  401346:	89 c3                	mov    %eax,%ebx
  401348:	e8 c3 7b 00 00       	call   408f10 <_LoadLibraryA@4>
  40134d:	83 ec 04             	sub    $0x4,%esp
  401350:	a3 20 ea 40 00       	mov    %eax,0x40ea20
  401355:	c7 44 24 04 13 b0 40 	movl   $0x40b013,0x4(%esp)
  40135c:	00 
  40135d:	89 1c 24             	mov    %ebx,(%esp)
  401360:	e8 d3 7b 00 00       	call   408f38 <_GetProcAddress@8>
  401365:	83 ec 08             	sub    $0x8,%esp
  401368:	89 c6                	mov    %eax,%esi
  40136a:	c7 44 24 04 29 b0 40 	movl   $0x40b029,0x4(%esp)
  401371:	00 
  401372:	89 1c 24             	mov    %ebx,(%esp)
  401375:	e8 be 7b 00 00       	call   408f38 <_GetProcAddress@8>
  40137a:	83 ec 08             	sub    $0x8,%esp
  40137d:	a3 00 a0 40 00       	mov    %eax,0x40a000
  401382:	85 f6                	test   %esi,%esi
  401384:	74 11                	je     401397 <___gcc_register_frame+0x77>
  401386:	c7 44 24 04 08 e0 40 	movl   $0x40e008,0x4(%esp)
  40138d:	00 
  40138e:	c7 04 24 c8 c0 40 00 	movl   $0x40c0c8,(%esp)
  401395:	ff d6                	call   *%esi
  401397:	a1 28 a0 40 00       	mov    0x40a028,%eax
  40139c:	85 c0                	test   %eax,%eax
  40139e:	74 3a                	je     4013da <___gcc_register_frame+0xba>
  4013a0:	c7 04 24 41 b0 40 00 	movl   $0x40b041,(%esp)
  4013a7:	e8 94 7b 00 00       	call   408f40 <_GetModuleHandleA@4>
  4013ac:	83 ec 04             	sub    $0x4,%esp
  4013af:	85 c0                	test   %eax,%eax
  4013b1:	ba 00 00 00 00       	mov    $0x0,%edx
  4013b6:	74 15                	je     4013cd <___gcc_register_frame+0xad>
  4013b8:	c7 44 24 04 4f b0 40 	movl   $0x40b04f,0x4(%esp)
  4013bf:	00 
  4013c0:	89 04 24             	mov    %eax,(%esp)
  4013c3:	e8 70 7b 00 00       	call   408f38 <_GetProcAddress@8>
  4013c8:	83 ec 08             	sub    $0x8,%esp
  4013cb:	89 c2                	mov    %eax,%edx
  4013cd:	85 d2                	test   %edx,%edx
  4013cf:	74 09                	je     4013da <___gcc_register_frame+0xba>
  4013d1:	c7 04 24 28 a0 40 00 	movl   $0x40a028,(%esp)
  4013d8:	ff d2                	call   *%edx
  4013da:	c7 04 24 10 14 40 00 	movl   $0x401410,(%esp)
  4013e1:	e8 1a ff ff ff       	call   401300 <_atexit>
  4013e6:	8d 65 f8             	lea    -0x8(%ebp),%esp
  4013e9:	5b                   	pop    %ebx
  4013ea:	5e                   	pop    %esi
  4013eb:	5d                   	pop    %ebp
  4013ec:	c3                   	ret    
  4013ed:	8d 76 00             	lea    0x0(%esi),%esi
  4013f0:	c7 05 00 a0 40 00 00 	movl   $0x0,0x40a000
  4013f7:	00 00 00 
  4013fa:	be 00 00 00 00       	mov    $0x0,%esi
  4013ff:	eb 81                	jmp    401382 <___gcc_register_frame+0x62>
  401401:	eb 0d                	jmp    401410 <___gcc_deregister_frame>
  401403:	90                   	nop
  401404:	90                   	nop
  401405:	90                   	nop
  401406:	90                   	nop
  401407:	90                   	nop
  401408:	90                   	nop
  401409:	90                   	nop
  40140a:	90                   	nop
  40140b:	90                   	nop
  40140c:	90                   	nop
  40140d:	90                   	nop
  40140e:	90                   	nop
  40140f:	90                   	nop

00401410 <___gcc_deregister_frame>:
  401410:	55                   	push   %ebp
  401411:	89 e5                	mov    %esp,%ebp
  401413:	83 ec 18             	sub    $0x18,%esp
  401416:	a1 00 a0 40 00       	mov    0x40a000,%eax
  40141b:	85 c0                	test   %eax,%eax
  40141d:	74 09                	je     401428 <___gcc_deregister_frame+0x18>
  40141f:	c7 04 24 c8 c0 40 00 	movl   $0x40c0c8,(%esp)
  401426:	ff d0                	call   *%eax
  401428:	a1 20 ea 40 00       	mov    0x40ea20,%eax
  40142d:	85 c0                	test   %eax,%eax
  40142f:	74 0b                	je     40143c <___gcc_deregister_frame+0x2c>
  401431:	89 04 24             	mov    %eax,(%esp)
  401434:	e8 1f 7b 00 00       	call   408f58 <_FreeLibrary@4>
  401439:	83 ec 04             	sub    $0x4,%esp
  40143c:	c9                   	leave  
  40143d:	c3                   	ret    
  40143e:	90                   	nop
  40143f:	90                   	nop

00401440 <_printf>:
  return __retval;
}

__mingw_stdio_redirect__
int printf (const char *__format, ...)
{
  401440:	55                   	push   %ebp
  401441:	89 e5                	mov    %esp,%ebp
  401443:	53                   	push   %ebx
  401444:	83 ec 24             	sub    $0x24,%esp
  register int __retval;
  __builtin_va_list __local_argv; __builtin_va_start( __local_argv, __format );
  401447:	8d 45 0c             	lea    0xc(%ebp),%eax
  40144a:	89 45 f4             	mov    %eax,-0xc(%ebp)
  __retval = __mingw_vprintf( __format, __local_argv );
  40144d:	8b 45 f4             	mov    -0xc(%ebp),%eax
  401450:	89 44 24 04          	mov    %eax,0x4(%esp)
  401454:	8b 45 08             	mov    0x8(%ebp),%eax
  401457:	89 04 24             	mov    %eax,(%esp)
  40145a:	e8 d1 0d 00 00       	call   402230 <___mingw_vprintf>
  40145f:	89 c3                	mov    %eax,%ebx
  __builtin_va_end( __local_argv );
  return __retval;
  401461:	89 d8                	mov    %ebx,%eax
}
  401463:	83 c4 24             	add    $0x24,%esp
  401466:	5b                   	pop    %ebx
  401467:	5d                   	pop    %ebp
  401468:	c3                   	ret    

00401469 <_main>:

#define MAX_LENGTH (10)
char buffer[MAX_LENGTH];

/* A pretty boring main file */
int main(void) {
  401469:	55                   	push   %ebp
  40146a:	89 e5                	mov    %esp,%ebp
  40146c:	83 e4 f0             	and    $0xfffffff0,%esp
  40146f:	83 ec 20             	sub    $0x20,%esp
  401472:	e8 49 07 00 00       	call   401bc0 <___main>
  unsigned int i;
  char value;

  /* Code below does some arbitrary memory Reads & writes */
  clear_all(buffer, MAX_LENGTH);
  401477:	c7 44 24 04 0a 00 00 	movl   $0xa,0x4(%esp)
  40147e:	00 
  40147f:	c7 04 24 24 ea 40 00 	movl   $0x40ea24,(%esp)
  401486:	e8 13 02 00 00       	call   40169e <_clear_all>
  set_all( ( buffer + 8 ), 43, 2); 
  40148b:	b8 2c ea 40 00       	mov    $0x40ea2c,%eax
  401490:	c7 44 24 08 02 00 00 	movl   $0x2,0x8(%esp)
  401497:	00 
  401498:	c7 44 24 04 2b 00 00 	movl   $0x2b,0x4(%esp)
  40149f:	00 
  4014a0:	89 04 24             	mov    %eax,(%esp)
  4014a3:	e8 b8 01 00 00       	call   401660 <_set_all>
  set_value(buffer, 0, 0x61);
  4014a8:	c7 44 24 08 61 00 00 	movl   $0x61,0x8(%esp)
  4014af:	00 
  4014b0:	c7 44 24 04 00 00 00 	movl   $0x0,0x4(%esp)
  4014b7:	00 
  4014b8:	c7 04 24 24 ea 40 00 	movl   $0x40ea24,(%esp)
  4014bf:	e8 4c 01 00 00       	call   401610 <_set_value>
  value = get_value(buffer, 9);
  4014c4:	c7 44 24 04 09 00 00 	movl   $0x9,0x4(%esp)
  4014cb:	00 
  4014cc:	c7 04 24 24 ea 40 00 	movl   $0x40ea24,(%esp)
  4014d3:	e8 78 01 00 00       	call   401650 <_get_value>
  4014d8:	88 44 24 1b          	mov    %al,0x1b(%esp)
  set_value(buffer, 9, (value + 0x27));
  4014dc:	0f b6 44 24 1b       	movzbl 0x1b(%esp),%eax
  4014e1:	83 c0 27             	add    $0x27,%eax
  4014e4:	0f be c0             	movsbl %al,%eax
  4014e7:	89 44 24 08          	mov    %eax,0x8(%esp)
  4014eb:	c7 44 24 04 09 00 00 	movl   $0x9,0x4(%esp)
  4014f2:	00 
  4014f3:	c7 04 24 24 ea 40 00 	movl   $0x40ea24,(%esp)
  4014fa:	e8 11 01 00 00       	call   401610 <_set_value>
  set_value(buffer, 3, 0x37);
  4014ff:	c7 44 24 08 37 00 00 	movl   $0x37,0x8(%esp)
  401506:	00 
  401507:	c7 44 24 04 03 00 00 	movl   $0x3,0x4(%esp)
  40150e:	00 
  40150f:	c7 04 24 24 ea 40 00 	movl   $0x40ea24,(%esp)
  401516:	e8 f5 00 00 00       	call   401610 <_set_value>
  set_value(buffer, 1, 88);
  40151b:	c7 44 24 08 58 00 00 	movl   $0x58,0x8(%esp)
  401522:	00 
  401523:	c7 44 24 04 01 00 00 	movl   $0x1,0x4(%esp)
  40152a:	00 
  40152b:	c7 04 24 24 ea 40 00 	movl   $0x40ea24,(%esp)
  401532:	e8 d9 00 00 00       	call   401610 <_set_value>
  set_value(buffer, 4, '2');
  401537:	c7 44 24 08 32 00 00 	movl   $0x32,0x8(%esp)
  40153e:	00 
  40153f:	c7 44 24 04 04 00 00 	movl   $0x4,0x4(%esp)
  401546:	00 
  401547:	c7 04 24 24 ea 40 00 	movl   $0x40ea24,(%esp)
  40154e:	e8 bd 00 00 00       	call   401610 <_set_value>
  value = get_value(buffer, 1);
  401553:	c7 44 24 04 01 00 00 	movl   $0x1,0x4(%esp)
  40155a:	00 
  40155b:	c7 04 24 24 ea 40 00 	movl   $0x40ea24,(%esp)
  401562:	e8 e9 00 00 00       	call   401650 <_get_value>
  401567:	88 44 24 1b          	mov    %al,0x1b(%esp)
  set_value(buffer, 2, 121);
  40156b:	c7 44 24 08 79 00 00 	movl   $0x79,0x8(%esp)
  401572:	00 
  401573:	c7 44 24 04 02 00 00 	movl   $0x2,0x4(%esp)
  40157a:	00 
  40157b:	c7 04 24 24 ea 40 00 	movl   $0x40ea24,(%esp)
  401582:	e8 89 00 00 00       	call   401610 <_set_value>
  set_value(buffer, 7, (value - 12));
  401587:	0f b6 44 24 1b       	movzbl 0x1b(%esp),%eax
  40158c:	83 e8 0c             	sub    $0xc,%eax
  40158f:	0f be c0             	movsbl %al,%eax
  401592:	89 44 24 08          	mov    %eax,0x8(%esp)
  401596:	c7 44 24 04 07 00 00 	movl   $0x7,0x4(%esp)
  40159d:	00 
  40159e:	c7 04 24 24 ea 40 00 	movl   $0x40ea24,(%esp)
  4015a5:	e8 66 00 00 00       	call   401610 <_set_value>
  set_value(buffer, 5, 0x5F);
  4015aa:	c7 44 24 08 5f 00 00 	movl   $0x5f,0x8(%esp)
  4015b1:	00 
  4015b2:	c7 44 24 04 05 00 00 	movl   $0x5,0x4(%esp)
  4015b9:	00 
  4015ba:	c7 04 24 24 ea 40 00 	movl   $0x40ea24,(%esp)
  4015c1:	e8 4a 00 00 00       	call   401610 <_set_value>

  for ( i = 0; i < MAX_LENGTH; i++ ){
  4015c6:	c7 44 24 1c 00 00 00 	movl   $0x0,0x1c(%esp)
  4015cd:	00 
  4015ce:	eb 24                	jmp    4015f4 <_main+0x18b>
    PRINTF("%c", buffer[i]);
  4015d0:	8b 44 24 1c          	mov    0x1c(%esp),%eax
  4015d4:	05 24 ea 40 00       	add    $0x40ea24,%eax
  4015d9:	0f b6 00             	movzbl (%eax),%eax
  4015dc:	0f be c0             	movsbl %al,%eax
  4015df:	89 44 24 04          	mov    %eax,0x4(%esp)
  4015e3:	c7 04 24 64 b0 40 00 	movl   $0x40b064,(%esp)
  4015ea:	e8 51 fe ff ff       	call   401440 <_printf>
  value = get_value(buffer, 1);
  set_value(buffer, 2, 121);
  set_value(buffer, 7, (value - 12));
  set_value(buffer, 5, 0x5F);

  for ( i = 0; i < MAX_LENGTH; i++ ){
  4015ef:	83 44 24 1c 01       	addl   $0x1,0x1c(%esp)
  4015f4:	83 7c 24 1c 09       	cmpl   $0x9,0x1c(%esp)
  4015f9:	76 d5                	jbe    4015d0 <_main+0x167>
    PRINTF("%c", buffer[i]);
  }
  PRINTF("\n");
  4015fb:	c7 04 24 67 b0 40 00 	movl   $0x40b067,(%esp)
  401602:	e8 39 fe ff ff       	call   401440 <_printf>
  return 0;
  401607:	b8 00 00 00 00       	mov    $0x0,%eax
}
  40160c:	c9                   	leave  
  40160d:	c3                   	ret    
  40160e:	90                   	nop
  40160f:	90                   	nop

00401610 <_set_value>:
#include "memory.h"

/***********************************************************
 Function Definitions
***********************************************************/
void set_value(char * ptr, unsigned int index, char value){
  401610:	55                   	push   %ebp
  401611:	89 e5                	mov    %esp,%ebp
  401613:	83 ec 04             	sub    $0x4,%esp
  401616:	8b 45 10             	mov    0x10(%ebp),%eax
  401619:	88 45 fc             	mov    %al,-0x4(%ebp)
  ptr[index] = value;
  40161c:	8b 55 08             	mov    0x8(%ebp),%edx
  40161f:	8b 45 0c             	mov    0xc(%ebp),%eax
  401622:	01 c2                	add    %eax,%edx
  401624:	0f b6 45 fc          	movzbl -0x4(%ebp),%eax
  401628:	88 02                	mov    %al,(%edx)
}
  40162a:	90                   	nop
  40162b:	c9                   	leave  
  40162c:	c3                   	ret    

0040162d <_clear_value>:

void clear_value(char * ptr, unsigned int index){
  40162d:	55                   	push   %ebp
  40162e:	89 e5                	mov    %esp,%ebp
  401630:	83 ec 0c             	sub    $0xc,%esp
  set_value(ptr, index, 0);
  401633:	c7 44 24 08 00 00 00 	movl   $0x0,0x8(%esp)
  40163a:	00 
  40163b:	8b 45 0c             	mov    0xc(%ebp),%eax
  40163e:	89 44 24 04          	mov    %eax,0x4(%esp)
  401642:	8b 45 08             	mov    0x8(%ebp),%eax
  401645:	89 04 24             	mov    %eax,(%esp)
  401648:	e8 c3 ff ff ff       	call   401610 <_set_value>
}
  40164d:	90                   	nop
  40164e:	c9                   	leave  
  40164f:	c3                   	ret    

00401650 <_get_value>:

char get_value(char * ptr, unsigned int index){
  401650:	55                   	push   %ebp
  401651:	89 e5                	mov    %esp,%ebp
  return ptr[index];
  401653:	8b 55 08             	mov    0x8(%ebp),%edx
  401656:	8b 45 0c             	mov    0xc(%ebp),%eax
  401659:	01 d0                	add    %edx,%eax
  40165b:	0f b6 00             	movzbl (%eax),%eax
}
  40165e:	5d                   	pop    %ebp
  40165f:	c3                   	ret    

00401660 <_set_all>:

void set_all(char * ptr, char value, unsigned int size){
  401660:	55                   	push   %ebp
  401661:	89 e5                	mov    %esp,%ebp
  401663:	83 ec 20             	sub    $0x20,%esp
  401666:	8b 45 0c             	mov    0xc(%ebp),%eax
  401669:	88 45 ec             	mov    %al,-0x14(%ebp)
  unsigned int i;
  for(i = 0; i < size; i++) {
  40166c:	c7 45 fc 00 00 00 00 	movl   $0x0,-0x4(%ebp)
  401673:	eb 1e                	jmp    401693 <_set_all+0x33>
    set_value(ptr, i, value);
  401675:	0f be 45 ec          	movsbl -0x14(%ebp),%eax
  401679:	89 44 24 08          	mov    %eax,0x8(%esp)
  40167d:	8b 45 fc             	mov    -0x4(%ebp),%eax
  401680:	89 44 24 04          	mov    %eax,0x4(%esp)
  401684:	8b 45 08             	mov    0x8(%ebp),%eax
  401687:	89 04 24             	mov    %eax,(%esp)
  40168a:	e8 81 ff ff ff       	call   401610 <_set_value>
  return ptr[index];
}

void set_all(char * ptr, char value, unsigned int size){
  unsigned int i;
  for(i = 0; i < size; i++) {
  40168f:	83 45 fc 01          	addl   $0x1,-0x4(%ebp)
  401693:	8b 45 fc             	mov    -0x4(%ebp),%eax
  401696:	3b 45 10             	cmp    0x10(%ebp),%eax
  401699:	72 da                	jb     401675 <_set_all+0x15>
    set_value(ptr, i, value);
  }
}
  40169b:	90                   	nop
  40169c:	c9                   	leave  
  40169d:	c3                   	ret    

0040169e <_clear_all>:

void clear_all(char * ptr, unsigned int size){
  40169e:	55                   	push   %ebp
  40169f:	89 e5                	mov    %esp,%ebp
  4016a1:	83 ec 0c             	sub    $0xc,%esp
  set_all(ptr, 0, size);
  4016a4:	8b 45 0c             	mov    0xc(%ebp),%eax
  4016a7:	89 44 24 08          	mov    %eax,0x8(%esp)
  4016ab:	c7 44 24 04 00 00 00 	movl   $0x0,0x4(%esp)
  4016b2:	00 
  4016b3:	8b 45 08             	mov    0x8(%ebp),%eax
  4016b6:	89 04 24             	mov    %eax,(%esp)
  4016b9:	e8 a2 ff ff ff       	call   401660 <_set_all>
}
  4016be:	90                   	nop
  4016bf:	c9                   	leave  
  4016c0:	c3                   	ret    
  4016c1:	90                   	nop
  4016c2:	90                   	nop
  4016c3:	90                   	nop
  4016c4:	66 90                	xchg   %ax,%ax
  4016c6:	66 90                	xchg   %ax,%ax
  4016c8:	66 90                	xchg   %ax,%ax
  4016ca:	66 90                	xchg   %ax,%ax
  4016cc:	66 90                	xchg   %ax,%ax
  4016ce:	66 90                	xchg   %ax,%ax

004016d0 <__setargv>:
  4016d0:	55                   	push   %ebp
  4016d1:	89 e5                	mov    %esp,%ebp
  4016d3:	57                   	push   %edi
  4016d4:	56                   	push   %esi
  4016d5:	53                   	push   %ebx
  4016d6:	83 ec 4c             	sub    $0x4c,%esp
  4016d9:	f6 05 04 a0 40 00 02 	testb  $0x2,0x40a004
  4016e0:	0f 84 2a 03 00 00    	je     401a10 <__setargv+0x340>
  4016e6:	e8 65 78 00 00       	call   408f50 <_GetCommandLineA@0>
  4016eb:	89 65 c4             	mov    %esp,-0x3c(%ebp)
  4016ee:	89 04 24             	mov    %eax,(%esp)
  4016f1:	89 c6                	mov    %eax,%esi
  4016f3:	e8 18 77 00 00       	call   408e10 <_strlen>
  4016f8:	8d 44 00 11          	lea    0x11(%eax,%eax,1),%eax
  4016fc:	c1 e8 04             	shr    $0x4,%eax
  4016ff:	c1 e0 04             	shl    $0x4,%eax
  401702:	e8 f9 0a 00 00       	call   402200 <___chkstk_ms>
  401707:	29 c4                	sub    %eax,%esp
  401709:	c7 45 e4 00 00 00 00 	movl   $0x0,-0x1c(%ebp)
  401710:	c7 45 d4 00 00 00 00 	movl   $0x0,-0x2c(%ebp)
  401717:	8d 44 24 10          	lea    0x10(%esp),%eax
  40171b:	c7 45 d0 00 00 00 00 	movl   $0x0,-0x30(%ebp)
  401722:	89 c1                	mov    %eax,%ecx
  401724:	89 45 cc             	mov    %eax,-0x34(%ebp)
  401727:	a1 04 a0 40 00       	mov    0x40a004,%eax
  40172c:	83 e0 40             	and    $0x40,%eax
  40172f:	83 f8 01             	cmp    $0x1,%eax
  401732:	89 c8                	mov    %ecx,%eax
  401734:	19 ff                	sbb    %edi,%edi
  401736:	31 d2                	xor    %edx,%edx
  401738:	81 e7 00 c0 ff ff    	and    $0xffffc000,%edi
  40173e:	81 c7 10 40 00 00    	add    $0x4010,%edi
  401744:	89 7d c8             	mov    %edi,-0x38(%ebp)
  401747:	89 f6                	mov    %esi,%esi
  401749:	8d bc 27 00 00 00 00 	lea    0x0(%edi,%eiz,1),%edi
  401750:	83 c6 01             	add    $0x1,%esi
  401753:	0f be 4e ff          	movsbl -0x1(%esi),%ecx
  401757:	85 c9                	test   %ecx,%ecx
  401759:	89 cb                	mov    %ecx,%ebx
  40175b:	74 73                	je     4017d0 <__setargv+0x100>
  40175d:	80 fb 3f             	cmp    $0x3f,%bl
  401760:	0f 84 8a 01 00 00    	je     4018f0 <__setargv+0x220>
  401766:	0f 8f b4 00 00 00    	jg     401820 <__setargv+0x150>
  40176c:	80 fb 27             	cmp    $0x27,%bl
  40176f:	0f 84 bb 01 00 00    	je     401930 <__setargv+0x260>
  401775:	80 fb 2a             	cmp    $0x2a,%bl
  401778:	0f 84 72 01 00 00    	je     4018f0 <__setargv+0x220>
  40177e:	80 fb 22             	cmp    $0x22,%bl
  401781:	0f 85 f9 00 00 00    	jne    401880 <__setargv+0x1b0>
  401787:	89 d3                	mov    %edx,%ebx
  401789:	d1 fb                	sar    %ebx
  40178b:	0f 84 aa 02 00 00    	je     401a3b <__setargv+0x36b>
  401791:	01 c3                	add    %eax,%ebx
  401793:	83 c0 01             	add    $0x1,%eax
  401796:	c6 40 ff 5c          	movb   $0x5c,-0x1(%eax)
  40179a:	39 d8                	cmp    %ebx,%eax
  40179c:	75 f5                	jne    401793 <__setargv+0xc3>
  40179e:	83 7d d4 27          	cmpl   $0x27,-0x2c(%ebp)
  4017a2:	0f 84 d8 01 00 00    	je     401980 <__setargv+0x2b0>
  4017a8:	83 e2 01             	and    $0x1,%edx
  4017ab:	0f 85 cf 01 00 00    	jne    401980 <__setargv+0x2b0>
  4017b1:	83 c6 01             	add    $0x1,%esi
  4017b4:	31 4d d4             	xor    %ecx,-0x2c(%ebp)
  4017b7:	31 d2                	xor    %edx,%edx
  4017b9:	0f be 4e ff          	movsbl -0x1(%esi),%ecx
  4017bd:	89 d8                	mov    %ebx,%eax
  4017bf:	c7 45 d0 01 00 00 00 	movl   $0x1,-0x30(%ebp)
  4017c6:	85 c9                	test   %ecx,%ecx
  4017c8:	89 cb                	mov    %ecx,%ebx
  4017ca:	75 91                	jne    40175d <__setargv+0x8d>
  4017cc:	8d 74 26 00          	lea    0x0(%esi,%eiz,1),%esi
  4017d0:	85 d2                	test   %edx,%edx
  4017d2:	0f 84 6a 02 00 00    	je     401a42 <__setargv+0x372>
  4017d8:	01 c2                	add    %eax,%edx
  4017da:	8d b6 00 00 00 00    	lea    0x0(%esi),%esi
  4017e0:	83 c0 01             	add    $0x1,%eax
  4017e3:	c6 40 ff 5c          	movb   $0x5c,-0x1(%eax)
  4017e7:	39 d0                	cmp    %edx,%eax
  4017e9:	75 f5                	jne    4017e0 <__setargv+0x110>
  4017eb:	8b 45 d0             	mov    -0x30(%ebp),%eax
  4017ee:	85 c0                	test   %eax,%eax
  4017f0:	0f 85 ee 01 00 00    	jne    4019e4 <__setargv+0x314>
  4017f6:	39 55 cc             	cmp    %edx,-0x34(%ebp)
  4017f9:	0f 82 e5 01 00 00    	jb     4019e4 <__setargv+0x314>
  4017ff:	8b 45 dc             	mov    -0x24(%ebp),%eax
  401802:	a3 04 e0 40 00       	mov    %eax,0x40e004
  401807:	8b 45 e0             	mov    -0x20(%ebp),%eax
  40180a:	a3 00 e0 40 00       	mov    %eax,0x40e000
  40180f:	8b 65 c4             	mov    -0x3c(%ebp),%esp
  401812:	8d 65 f4             	lea    -0xc(%ebp),%esp
  401815:	5b                   	pop    %ebx
  401816:	5e                   	pop    %esi
  401817:	5f                   	pop    %edi
  401818:	5d                   	pop    %ebp
  401819:	c3                   	ret    
  40181a:	8d b6 00 00 00 00    	lea    0x0(%esi),%esi
  401820:	80 fb 5c             	cmp    $0x5c,%bl
  401823:	0f 84 f7 00 00 00    	je     401920 <__setargv+0x250>
  401829:	80 fb 7f             	cmp    $0x7f,%bl
  40182c:	0f 84 be 00 00 00    	je     4018f0 <__setargv+0x220>
  401832:	80 fb 5b             	cmp    $0x5b,%bl
  401835:	75 49                	jne    401880 <__setargv+0x1b0>
  401837:	f6 05 04 a0 40 00 20 	testb  $0x20,0x40a004
  40183e:	0f 85 ac 00 00 00    	jne    4018f0 <__setargv+0x220>
  401844:	85 d2                	test   %edx,%edx
  401846:	8d 7a ff             	lea    -0x1(%edx),%edi
  401849:	b9 01 00 00 00       	mov    $0x1,%ecx
  40184e:	74 22                	je     401872 <__setargv+0x1a2>
  401850:	8d 54 38 01          	lea    0x1(%eax,%edi,1),%edx
  401854:	83 c0 01             	add    $0x1,%eax
  401857:	c6 40 ff 5c          	movb   $0x5c,-0x1(%eax)
  40185b:	39 d0                	cmp    %edx,%eax
  40185d:	75 f5                	jne    401854 <__setargv+0x184>
  40185f:	84 c9                	test   %cl,%cl
  401861:	75 0d                	jne    401870 <__setargv+0x1a0>
  401863:	8d 42 01             	lea    0x1(%edx),%eax
  401866:	88 1a                	mov    %bl,(%edx)
  401868:	31 d2                	xor    %edx,%edx
  40186a:	e9 e1 fe ff ff       	jmp    401750 <__setargv+0x80>
  40186f:	90                   	nop
  401870:	89 d0                	mov    %edx,%eax
  401872:	8d 50 01             	lea    0x1(%eax),%edx
  401875:	c6 00 7f             	movb   $0x7f,(%eax)
  401878:	eb e9                	jmp    401863 <__setargv+0x193>
  40187a:	8d b6 00 00 00 00    	lea    0x0(%esi),%esi
  401880:	85 d2                	test   %edx,%edx
  401882:	8d 3c 10             	lea    (%eax,%edx,1),%edi
  401885:	0f 84 92 01 00 00    	je     401a1d <__setargv+0x34d>
  40188b:	90                   	nop
  40188c:	8d 74 26 00          	lea    0x0(%esi,%eiz,1),%esi
  401890:	83 c0 01             	add    $0x1,%eax
  401893:	c6 40 ff 5c          	movb   $0x5c,-0x1(%eax)
  401897:	39 f8                	cmp    %edi,%eax
  401899:	75 f5                	jne    401890 <__setargv+0x1c0>
  40189b:	8b 45 d4             	mov    -0x2c(%ebp),%eax
  40189e:	85 c0                	test   %eax,%eax
  4018a0:	75 6e                	jne    401910 <__setargv+0x240>
  4018a2:	a1 bc f1 40 00       	mov    0x40f1bc,%eax
  4018a7:	83 38 01             	cmpl   $0x1,(%eax)
  4018aa:	0f 84 e4 00 00 00    	je     401994 <__setargv+0x2c4>
  4018b0:	c7 44 24 04 08 00 00 	movl   $0x8,0x4(%esp)
  4018b7:	00 
  4018b8:	89 0c 24             	mov    %ecx,(%esp)
  4018bb:	e8 e0 75 00 00       	call   408ea0 <__isctype>
  4018c0:	85 c0                	test   %eax,%eax
  4018c2:	74 4c                	je     401910 <__setargv+0x240>
  4018c4:	39 7d cc             	cmp    %edi,-0x34(%ebp)
  4018c7:	0f 82 dd 00 00 00    	jb     4019aa <__setargv+0x2da>
  4018cd:	8b 55 d0             	mov    -0x30(%ebp),%edx
  4018d0:	85 d2                	test   %edx,%edx
  4018d2:	0f 85 d2 00 00 00    	jne    4019aa <__setargv+0x2da>
  4018d8:	89 f8                	mov    %edi,%eax
  4018da:	31 d2                	xor    %edx,%edx
  4018dc:	c7 45 d0 00 00 00 00 	movl   $0x0,-0x30(%ebp)
  4018e3:	e9 68 fe ff ff       	jmp    401750 <__setargv+0x80>
  4018e8:	90                   	nop
  4018e9:	8d b4 26 00 00 00 00 	lea    0x0(%esi,%eiz,1),%esi
  4018f0:	85 d2                	test   %edx,%edx
  4018f2:	8d 7a ff             	lea    -0x1(%edx),%edi
  4018f5:	0f 84 29 01 00 00    	je     401a24 <__setargv+0x354>
  4018fb:	8b 55 d4             	mov    -0x2c(%ebp),%edx
  4018fe:	85 d2                	test   %edx,%edx
  401900:	0f 95 c2             	setne  %dl
  401903:	83 f9 7f             	cmp    $0x7f,%ecx
  401906:	0f 94 c1             	sete   %cl
  401909:	09 d1                	or     %edx,%ecx
  40190b:	e9 40 ff ff ff       	jmp    401850 <__setargv+0x180>
  401910:	8d 47 01             	lea    0x1(%edi),%eax
  401913:	88 1f                	mov    %bl,(%edi)
  401915:	31 d2                	xor    %edx,%edx
  401917:	e9 34 fe ff ff       	jmp    401750 <__setargv+0x80>
  40191c:	8d 74 26 00          	lea    0x0(%esi,%eiz,1),%esi
  401920:	83 c2 01             	add    $0x1,%edx
  401923:	e9 28 fe ff ff       	jmp    401750 <__setargv+0x80>
  401928:	90                   	nop
  401929:	8d b4 26 00 00 00 00 	lea    0x0(%esi,%eiz,1),%esi
  401930:	f6 05 04 a0 40 00 10 	testb  $0x10,0x40a004
  401937:	0f 84 43 ff ff ff    	je     401880 <__setargv+0x1b0>
  40193d:	89 d3                	mov    %edx,%ebx
  40193f:	d1 fb                	sar    %ebx
  401941:	0f 84 02 01 00 00    	je     401a49 <__setargv+0x379>
  401947:	01 c3                	add    %eax,%ebx
  401949:	8d b4 26 00 00 00 00 	lea    0x0(%esi,%eiz,1),%esi
  401950:	83 c0 01             	add    $0x1,%eax
  401953:	c6 40 ff 5c          	movb   $0x5c,-0x1(%eax)
  401957:	39 c3                	cmp    %eax,%ebx
  401959:	75 f5                	jne    401950 <__setargv+0x280>
  40195b:	83 7d d4 22          	cmpl   $0x22,-0x2c(%ebp)
  40195f:	74 09                	je     40196a <__setargv+0x29a>
  401961:	83 e2 01             	and    $0x1,%edx
  401964:	0f 84 47 fe ff ff    	je     4017b1 <__setargv+0xe1>
  40196a:	8d 43 01             	lea    0x1(%ebx),%eax
  40196d:	c6 03 27             	movb   $0x27,(%ebx)
  401970:	31 d2                	xor    %edx,%edx
  401972:	c7 45 d0 01 00 00 00 	movl   $0x1,-0x30(%ebp)
  401979:	e9 d2 fd ff ff       	jmp    401750 <__setargv+0x80>
  40197e:	66 90                	xchg   %ax,%ax
  401980:	8d 43 01             	lea    0x1(%ebx),%eax
  401983:	c6 03 22             	movb   $0x22,(%ebx)
  401986:	31 d2                	xor    %edx,%edx
  401988:	c7 45 d0 01 00 00 00 	movl   $0x1,-0x30(%ebp)
  40198f:	e9 bc fd ff ff       	jmp    401750 <__setargv+0x80>
  401994:	a1 e4 f1 40 00       	mov    0x40f1e4,%eax
  401999:	8b 00                	mov    (%eax),%eax
  40199b:	0f b7 04 48          	movzwl (%eax,%ecx,2),%eax
  40199f:	83 e0 08             	and    $0x8,%eax
  4019a2:	0f b7 c0             	movzwl %ax,%eax
  4019a5:	e9 16 ff ff ff       	jmp    4018c0 <__setargv+0x1f0>
  4019aa:	8d 45 d8             	lea    -0x28(%ebp),%eax
  4019ad:	c6 07 00             	movb   $0x0,(%edi)
  4019b0:	c7 44 24 08 00 00 00 	movl   $0x0,0x8(%esp)
  4019b7:	00 
  4019b8:	89 44 24 0c          	mov    %eax,0xc(%esp)
  4019bc:	8b 7d c8             	mov    -0x38(%ebp),%edi
  4019bf:	89 7c 24 04          	mov    %edi,0x4(%esp)
  4019c3:	8b 5d cc             	mov    -0x34(%ebp),%ebx
  4019c6:	83 cf 01             	or     $0x1,%edi
  4019c9:	89 1c 24             	mov    %ebx,(%esp)
  4019cc:	e8 5f 14 00 00       	call   402e30 <___mingw_glob>
  4019d1:	89 7d c8             	mov    %edi,-0x38(%ebp)
  4019d4:	89 d8                	mov    %ebx,%eax
  4019d6:	31 d2                	xor    %edx,%edx
  4019d8:	c7 45 d0 00 00 00 00 	movl   $0x0,-0x30(%ebp)
  4019df:	e9 6c fd ff ff       	jmp    401750 <__setargv+0x80>
  4019e4:	8d 45 d8             	lea    -0x28(%ebp),%eax
  4019e7:	c6 02 00             	movb   $0x0,(%edx)
  4019ea:	c7 44 24 08 00 00 00 	movl   $0x0,0x8(%esp)
  4019f1:	00 
  4019f2:	89 44 24 0c          	mov    %eax,0xc(%esp)
  4019f6:	8b 45 c8             	mov    -0x38(%ebp),%eax
  4019f9:	89 44 24 04          	mov    %eax,0x4(%esp)
  4019fd:	8b 45 cc             	mov    -0x34(%ebp),%eax
  401a00:	89 04 24             	mov    %eax,(%esp)
  401a03:	e8 28 14 00 00       	call   402e30 <___mingw_glob>
  401a08:	e9 f2 fd ff ff       	jmp    4017ff <__setargv+0x12f>
  401a0d:	8d 76 00             	lea    0x0(%esi),%esi
  401a10:	e8 6b f8 ff ff       	call   401280 <__mingw32_init_mainargs>
  401a15:	8d 65 f4             	lea    -0xc(%ebp),%esp
  401a18:	5b                   	pop    %ebx
  401a19:	5e                   	pop    %esi
  401a1a:	5f                   	pop    %edi
  401a1b:	5d                   	pop    %ebp
  401a1c:	c3                   	ret    
  401a1d:	89 c7                	mov    %eax,%edi
  401a1f:	e9 77 fe ff ff       	jmp    40189b <__setargv+0x1cb>
  401a24:	8b 7d d4             	mov    -0x2c(%ebp),%edi
  401a27:	83 f9 7f             	cmp    $0x7f,%ecx
  401a2a:	0f 94 c1             	sete   %cl
  401a2d:	85 ff                	test   %edi,%edi
  401a2f:	0f 95 c2             	setne  %dl
  401a32:	09 d1                	or     %edx,%ecx
  401a34:	89 c2                	mov    %eax,%edx
  401a36:	e9 24 fe ff ff       	jmp    40185f <__setargv+0x18f>
  401a3b:	89 c3                	mov    %eax,%ebx
  401a3d:	e9 5c fd ff ff       	jmp    40179e <__setargv+0xce>
  401a42:	89 c2                	mov    %eax,%edx
  401a44:	e9 a2 fd ff ff       	jmp    4017eb <__setargv+0x11b>
  401a49:	89 c3                	mov    %eax,%ebx
  401a4b:	e9 0b ff ff ff       	jmp    40195b <__setargv+0x28b>

00401a50 <___cpu_features_init>:
  401a50:	9c                   	pushf  
  401a51:	9c                   	pushf  
  401a52:	5a                   	pop    %edx
  401a53:	89 d0                	mov    %edx,%eax
  401a55:	81 f2 00 00 20 00    	xor    $0x200000,%edx
  401a5b:	52                   	push   %edx
  401a5c:	9d                   	popf   
  401a5d:	9c                   	pushf  
  401a5e:	5a                   	pop    %edx
  401a5f:	9d                   	popf   
  401a60:	31 d0                	xor    %edx,%eax
  401a62:	a9 00 00 20 00       	test   $0x200000,%eax
  401a67:	0f 84 a5 00 00 00    	je     401b12 <___cpu_features_init+0xc2>
  401a6d:	53                   	push   %ebx
  401a6e:	31 c0                	xor    %eax,%eax
  401a70:	0f a2                	cpuid  
  401a72:	85 c0                	test   %eax,%eax
  401a74:	0f 84 97 00 00 00    	je     401b11 <___cpu_features_init+0xc1>
  401a7a:	b8 01 00 00 00       	mov    $0x1,%eax
  401a7f:	0f a2                	cpuid  
  401a81:	f6 c6 01             	test   $0x1,%dh
  401a84:	74 07                	je     401a8d <___cpu_features_init+0x3d>
  401a86:	83 0d 24 e0 40 00 01 	orl    $0x1,0x40e024
  401a8d:	f6 c6 80             	test   $0x80,%dh
  401a90:	74 07                	je     401a99 <___cpu_features_init+0x49>
  401a92:	83 0d 24 e0 40 00 02 	orl    $0x2,0x40e024
  401a99:	f7 c2 00 00 80 00    	test   $0x800000,%edx
  401a9f:	74 07                	je     401aa8 <___cpu_features_init+0x58>
  401aa1:	83 0d 24 e0 40 00 04 	orl    $0x4,0x40e024
  401aa8:	f7 c2 00 00 00 01    	test   $0x1000000,%edx
  401aae:	74 07                	je     401ab7 <___cpu_features_init+0x67>
  401ab0:	83 0d 24 e0 40 00 08 	orl    $0x8,0x40e024
  401ab7:	f7 c2 00 00 00 02    	test   $0x2000000,%edx
  401abd:	74 07                	je     401ac6 <___cpu_features_init+0x76>
  401abf:	83 0d 24 e0 40 00 10 	orl    $0x10,0x40e024
  401ac6:	81 e2 00 00 00 04    	and    $0x4000000,%edx
  401acc:	74 07                	je     401ad5 <___cpu_features_init+0x85>
  401ace:	83 0d 24 e0 40 00 20 	orl    $0x20,0x40e024
  401ad5:	f6 c1 01             	test   $0x1,%cl
  401ad8:	74 07                	je     401ae1 <___cpu_features_init+0x91>
  401ada:	83 0d 24 e0 40 00 40 	orl    $0x40,0x40e024
  401ae1:	80 e5 20             	and    $0x20,%ch
  401ae4:	75 2e                	jne    401b14 <___cpu_features_init+0xc4>
  401ae6:	b8 00 00 00 80       	mov    $0x80000000,%eax
  401aeb:	0f a2                	cpuid  
  401aed:	3d 00 00 00 80       	cmp    $0x80000000,%eax
  401af2:	76 1d                	jbe    401b11 <___cpu_features_init+0xc1>
  401af4:	b8 01 00 00 80       	mov    $0x80000001,%eax
  401af9:	0f a2                	cpuid  
  401afb:	85 d2                	test   %edx,%edx
  401afd:	78 21                	js     401b20 <___cpu_features_init+0xd0>
  401aff:	81 e2 00 00 00 40    	and    $0x40000000,%edx
  401b05:	74 0a                	je     401b11 <___cpu_features_init+0xc1>
  401b07:	81 0d 24 e0 40 00 00 	orl    $0x200,0x40e024
  401b0e:	02 00 00 
  401b11:	5b                   	pop    %ebx
  401b12:	f3 c3                	repz ret 
  401b14:	81 0d 24 e0 40 00 80 	orl    $0x80,0x40e024
  401b1b:	00 00 00 
  401b1e:	eb c6                	jmp    401ae6 <___cpu_features_init+0x96>
  401b20:	81 0d 24 e0 40 00 00 	orl    $0x100,0x40e024
  401b27:	01 00 00 
  401b2a:	eb d3                	jmp    401aff <___cpu_features_init+0xaf>
  401b2c:	90                   	nop
  401b2d:	90                   	nop
  401b2e:	90                   	nop
  401b2f:	90                   	nop

00401b30 <__fpreset>:
  401b30:	db e3                	fninit 
  401b32:	c3                   	ret    
  401b33:	90                   	nop
  401b34:	90                   	nop
  401b35:	90                   	nop
  401b36:	90                   	nop
  401b37:	90                   	nop
  401b38:	90                   	nop
  401b39:	90                   	nop
  401b3a:	90                   	nop
  401b3b:	90                   	nop
  401b3c:	90                   	nop
  401b3d:	90                   	nop
  401b3e:	90                   	nop
  401b3f:	90                   	nop

00401b40 <___do_global_dtors>:
  401b40:	a1 0c a0 40 00       	mov    0x40a00c,%eax
  401b45:	8b 00                	mov    (%eax),%eax
  401b47:	85 c0                	test   %eax,%eax
  401b49:	74 1f                	je     401b6a <___do_global_dtors+0x2a>
  401b4b:	83 ec 0c             	sub    $0xc,%esp
  401b4e:	66 90                	xchg   %ax,%ax
  401b50:	ff d0                	call   *%eax
  401b52:	a1 0c a0 40 00       	mov    0x40a00c,%eax
  401b57:	8d 50 04             	lea    0x4(%eax),%edx
  401b5a:	8b 40 04             	mov    0x4(%eax),%eax
  401b5d:	89 15 0c a0 40 00    	mov    %edx,0x40a00c
  401b63:	85 c0                	test   %eax,%eax
  401b65:	75 e9                	jne    401b50 <___do_global_dtors+0x10>
  401b67:	83 c4 0c             	add    $0xc,%esp
  401b6a:	f3 c3                	repz ret 
  401b6c:	8d 74 26 00          	lea    0x0(%esi,%eiz,1),%esi

00401b70 <___do_global_ctors>:
  401b70:	53                   	push   %ebx
  401b71:	83 ec 18             	sub    $0x18,%esp
  401b74:	8b 1d 20 92 40 00    	mov    0x409220,%ebx
  401b7a:	83 fb ff             	cmp    $0xffffffff,%ebx
  401b7d:	74 21                	je     401ba0 <___do_global_ctors+0x30>
  401b7f:	85 db                	test   %ebx,%ebx
  401b81:	74 0c                	je     401b8f <___do_global_ctors+0x1f>
  401b83:	ff 14 9d 20 92 40 00 	call   *0x409220(,%ebx,4)
  401b8a:	83 eb 01             	sub    $0x1,%ebx
  401b8d:	75 f4                	jne    401b83 <___do_global_ctors+0x13>
  401b8f:	c7 04 24 40 1b 40 00 	movl   $0x401b40,(%esp)
  401b96:	e8 65 f7 ff ff       	call   401300 <_atexit>
  401b9b:	83 c4 18             	add    $0x18,%esp
  401b9e:	5b                   	pop    %ebx
  401b9f:	c3                   	ret    
  401ba0:	31 db                	xor    %ebx,%ebx
  401ba2:	eb 02                	jmp    401ba6 <___do_global_ctors+0x36>
  401ba4:	89 c3                	mov    %eax,%ebx
  401ba6:	8d 43 01             	lea    0x1(%ebx),%eax
  401ba9:	8b 14 85 20 92 40 00 	mov    0x409220(,%eax,4),%edx
  401bb0:	85 d2                	test   %edx,%edx
  401bb2:	75 f0                	jne    401ba4 <___do_global_ctors+0x34>
  401bb4:	eb c9                	jmp    401b7f <___do_global_ctors+0xf>
  401bb6:	8d 76 00             	lea    0x0(%esi),%esi
  401bb9:	8d bc 27 00 00 00 00 	lea    0x0(%edi,%eiz,1),%edi

00401bc0 <___main>:
  401bc0:	a1 28 e0 40 00       	mov    0x40e028,%eax
  401bc5:	85 c0                	test   %eax,%eax
  401bc7:	74 07                	je     401bd0 <___main+0x10>
  401bc9:	f3 c3                	repz ret 
  401bcb:	90                   	nop
  401bcc:	8d 74 26 00          	lea    0x0(%esi,%eiz,1),%esi
  401bd0:	c7 05 28 e0 40 00 01 	movl   $0x1,0x40e028
  401bd7:	00 00 00 
  401bda:	eb 94                	jmp    401b70 <___do_global_ctors>
  401bdc:	90                   	nop
  401bdd:	90                   	nop
  401bde:	90                   	nop
  401bdf:	90                   	nop

00401be0 <.text>:
  401be0:	83 ec 1c             	sub    $0x1c,%esp
  401be3:	8b 44 24 24          	mov    0x24(%esp),%eax
  401be7:	83 f8 03             	cmp    $0x3,%eax
  401bea:	74 14                	je     401c00 <.text+0x20>
  401bec:	85 c0                	test   %eax,%eax
  401bee:	74 10                	je     401c00 <.text+0x20>
  401bf0:	b8 01 00 00 00       	mov    $0x1,%eax
  401bf5:	83 c4 1c             	add    $0x1c,%esp
  401bf8:	c2 0c 00             	ret    $0xc
  401bfb:	90                   	nop
  401bfc:	8d 74 26 00          	lea    0x0(%esi,%eiz,1),%esi
  401c00:	8b 54 24 28          	mov    0x28(%esp),%edx
  401c04:	89 44 24 04          	mov    %eax,0x4(%esp)
  401c08:	8b 44 24 20          	mov    0x20(%esp),%eax
  401c0c:	89 54 24 08          	mov    %edx,0x8(%esp)
  401c10:	89 04 24             	mov    %eax,(%esp)
  401c13:	e8 38 02 00 00       	call   401e50 <___mingw_TLScallback>
  401c18:	b8 01 00 00 00       	mov    $0x1,%eax
  401c1d:	83 c4 1c             	add    $0x1c,%esp
  401c20:	c2 0c 00             	ret    $0xc
  401c23:	8d b6 00 00 00 00    	lea    0x0(%esi),%esi
  401c29:	8d bc 27 00 00 00 00 	lea    0x0(%edi,%eiz,1),%edi

00401c30 <___dyn_tls_init@12>:
  401c30:	56                   	push   %esi
  401c31:	53                   	push   %ebx
  401c32:	83 ec 14             	sub    $0x14,%esp
  401c35:	83 3d 64 e0 40 00 02 	cmpl   $0x2,0x40e064
  401c3c:	8b 44 24 24          	mov    0x24(%esp),%eax
  401c40:	74 0a                	je     401c4c <___dyn_tls_init@12+0x1c>
  401c42:	c7 05 64 e0 40 00 02 	movl   $0x2,0x40e064
  401c49:	00 00 00 
  401c4c:	83 f8 02             	cmp    $0x2,%eax
  401c4f:	74 12                	je     401c63 <___dyn_tls_init@12+0x33>
  401c51:	83 f8 01             	cmp    $0x1,%eax
  401c54:	74 4b                	je     401ca1 <___dyn_tls_init@12+0x71>
  401c56:	83 c4 14             	add    $0x14,%esp
  401c59:	b8 01 00 00 00       	mov    $0x1,%eax
  401c5e:	5b                   	pop    %ebx
  401c5f:	5e                   	pop    %esi
  401c60:	c2 0c 00             	ret    $0xc
  401c63:	be 14 00 41 00       	mov    $0x410014,%esi
  401c68:	81 ee 14 00 41 00    	sub    $0x410014,%esi
  401c6e:	c1 fe 02             	sar    $0x2,%esi
  401c71:	85 f6                	test   %esi,%esi
  401c73:	7e e1                	jle    401c56 <___dyn_tls_init@12+0x26>
  401c75:	31 db                	xor    %ebx,%ebx
  401c77:	89 f6                	mov    %esi,%esi
  401c79:	8d bc 27 00 00 00 00 	lea    0x0(%edi,%eiz,1),%edi
  401c80:	8b 04 9d 14 00 41 00 	mov    0x410014(,%ebx,4),%eax
  401c87:	85 c0                	test   %eax,%eax
  401c89:	74 02                	je     401c8d <___dyn_tls_init@12+0x5d>
  401c8b:	ff d0                	call   *%eax
  401c8d:	83 c3 01             	add    $0x1,%ebx
  401c90:	39 de                	cmp    %ebx,%esi
  401c92:	75 ec                	jne    401c80 <___dyn_tls_init@12+0x50>
  401c94:	83 c4 14             	add    $0x14,%esp
  401c97:	b8 01 00 00 00       	mov    $0x1,%eax
  401c9c:	5b                   	pop    %ebx
  401c9d:	5e                   	pop    %esi
  401c9e:	c2 0c 00             	ret    $0xc
  401ca1:	8b 44 24 28          	mov    0x28(%esp),%eax
  401ca5:	c7 44 24 04 01 00 00 	movl   $0x1,0x4(%esp)
  401cac:	00 
  401cad:	89 44 24 08          	mov    %eax,0x8(%esp)
  401cb1:	8b 44 24 20          	mov    0x20(%esp),%eax
  401cb5:	89 04 24             	mov    %eax,(%esp)
  401cb8:	e8 93 01 00 00       	call   401e50 <___mingw_TLScallback>
  401cbd:	eb 97                	jmp    401c56 <___dyn_tls_init@12+0x26>
  401cbf:	90                   	nop

00401cc0 <___tlregdtor>:
  401cc0:	31 c0                	xor    %eax,%eax
  401cc2:	c3                   	ret    
  401cc3:	90                   	nop
  401cc4:	90                   	nop
  401cc5:	90                   	nop
  401cc6:	90                   	nop
  401cc7:	90                   	nop
  401cc8:	90                   	nop
  401cc9:	90                   	nop
  401cca:	90                   	nop
  401ccb:	90                   	nop
  401ccc:	90                   	nop
  401ccd:	90                   	nop
  401cce:	90                   	nop
  401ccf:	90                   	nop

00401cd0 <.text>:
  401cd0:	56                   	push   %esi
  401cd1:	53                   	push   %ebx
  401cd2:	83 ec 14             	sub    $0x14,%esp
  401cd5:	c7 04 24 44 e0 40 00 	movl   $0x40e044,(%esp)
  401cdc:	e8 9f 72 00 00       	call   408f80 <_EnterCriticalSection@4>
  401ce1:	8b 1d 3c e0 40 00    	mov    0x40e03c,%ebx
  401ce7:	83 ec 04             	sub    $0x4,%esp
  401cea:	85 db                	test   %ebx,%ebx
  401cec:	74 2d                	je     401d1b <.text+0x4b>
  401cee:	66 90                	xchg   %ax,%ax
  401cf0:	8b 03                	mov    (%ebx),%eax
  401cf2:	89 04 24             	mov    %eax,(%esp)
  401cf5:	e8 f6 71 00 00       	call   408ef0 <_TlsGetValue@4>
  401cfa:	83 ec 04             	sub    $0x4,%esp
  401cfd:	89 c6                	mov    %eax,%esi
  401cff:	e8 44 72 00 00       	call   408f48 <_GetLastError@0>
  401d04:	85 c0                	test   %eax,%eax
  401d06:	75 0c                	jne    401d14 <.text+0x44>
  401d08:	85 f6                	test   %esi,%esi
  401d0a:	74 08                	je     401d14 <.text+0x44>
  401d0c:	8b 43 04             	mov    0x4(%ebx),%eax
  401d0f:	89 34 24             	mov    %esi,(%esp)
  401d12:	ff d0                	call   *%eax
  401d14:	8b 5b 08             	mov    0x8(%ebx),%ebx
  401d17:	85 db                	test   %ebx,%ebx
  401d19:	75 d5                	jne    401cf0 <.text+0x20>
  401d1b:	c7 04 24 44 e0 40 00 	movl   $0x40e044,(%esp)
  401d22:	e8 f1 71 00 00       	call   408f18 <_LeaveCriticalSection@4>
  401d27:	83 ec 04             	sub    $0x4,%esp
  401d2a:	83 c4 14             	add    $0x14,%esp
  401d2d:	5b                   	pop    %ebx
  401d2e:	5e                   	pop    %esi
  401d2f:	c3                   	ret    

00401d30 <____w64_mingwthr_add_key_dtor>:
  401d30:	a1 40 e0 40 00       	mov    0x40e040,%eax
  401d35:	85 c0                	test   %eax,%eax
  401d37:	75 07                	jne    401d40 <____w64_mingwthr_add_key_dtor+0x10>
  401d39:	c3                   	ret    
  401d3a:	8d b6 00 00 00 00    	lea    0x0(%esi),%esi
  401d40:	53                   	push   %ebx
  401d41:	83 ec 18             	sub    $0x18,%esp
  401d44:	c7 44 24 04 0c 00 00 	movl   $0xc,0x4(%esp)
  401d4b:	00 
  401d4c:	c7 04 24 01 00 00 00 	movl   $0x1,(%esp)
  401d53:	e8 28 71 00 00       	call   408e80 <_calloc>
  401d58:	85 c0                	test   %eax,%eax
  401d5a:	89 c3                	mov    %eax,%ebx
  401d5c:	74 40                	je     401d9e <____w64_mingwthr_add_key_dtor+0x6e>
  401d5e:	8b 44 24 20          	mov    0x20(%esp),%eax
  401d62:	c7 04 24 44 e0 40 00 	movl   $0x40e044,(%esp)
  401d69:	89 03                	mov    %eax,(%ebx)
  401d6b:	8b 44 24 24          	mov    0x24(%esp),%eax
  401d6f:	89 43 04             	mov    %eax,0x4(%ebx)
  401d72:	e8 09 72 00 00       	call   408f80 <_EnterCriticalSection@4>
  401d77:	a1 3c e0 40 00       	mov    0x40e03c,%eax
  401d7c:	83 ec 04             	sub    $0x4,%esp
  401d7f:	89 1d 3c e0 40 00    	mov    %ebx,0x40e03c
  401d85:	c7 04 24 44 e0 40 00 	movl   $0x40e044,(%esp)
  401d8c:	89 43 08             	mov    %eax,0x8(%ebx)
  401d8f:	e8 84 71 00 00       	call   408f18 <_LeaveCriticalSection@4>
  401d94:	31 c0                	xor    %eax,%eax
  401d96:	83 ec 04             	sub    $0x4,%esp
  401d99:	83 c4 18             	add    $0x18,%esp
  401d9c:	5b                   	pop    %ebx
  401d9d:	c3                   	ret    
  401d9e:	b8 ff ff ff ff       	mov    $0xffffffff,%eax
  401da3:	eb f4                	jmp    401d99 <____w64_mingwthr_add_key_dtor+0x69>
  401da5:	8d 74 26 00          	lea    0x0(%esi,%eiz,1),%esi
  401da9:	8d bc 27 00 00 00 00 	lea    0x0(%edi,%eiz,1),%edi

00401db0 <____w64_mingwthr_remove_key_dtor>:
  401db0:	53                   	push   %ebx
  401db1:	83 ec 18             	sub    $0x18,%esp
  401db4:	a1 40 e0 40 00       	mov    0x40e040,%eax
  401db9:	8b 5c 24 20          	mov    0x20(%esp),%ebx
  401dbd:	85 c0                	test   %eax,%eax
  401dbf:	75 0f                	jne    401dd0 <____w64_mingwthr_remove_key_dtor+0x20>
  401dc1:	83 c4 18             	add    $0x18,%esp
  401dc4:	31 c0                	xor    %eax,%eax
  401dc6:	5b                   	pop    %ebx
  401dc7:	c3                   	ret    
  401dc8:	90                   	nop
  401dc9:	8d b4 26 00 00 00 00 	lea    0x0(%esi,%eiz,1),%esi
  401dd0:	c7 04 24 44 e0 40 00 	movl   $0x40e044,(%esp)
  401dd7:	e8 a4 71 00 00       	call   408f80 <_EnterCriticalSection@4>
  401ddc:	8b 15 3c e0 40 00    	mov    0x40e03c,%edx
  401de2:	83 ec 04             	sub    $0x4,%esp
  401de5:	85 d2                	test   %edx,%edx
  401de7:	74 17                	je     401e00 <____w64_mingwthr_remove_key_dtor+0x50>
  401de9:	8b 02                	mov    (%edx),%eax
  401deb:	39 c3                	cmp    %eax,%ebx
  401ded:	75 0a                	jne    401df9 <____w64_mingwthr_remove_key_dtor+0x49>
  401def:	eb 4e                	jmp    401e3f <____w64_mingwthr_remove_key_dtor+0x8f>
  401df1:	8b 08                	mov    (%eax),%ecx
  401df3:	39 d9                	cmp    %ebx,%ecx
  401df5:	74 29                	je     401e20 <____w64_mingwthr_remove_key_dtor+0x70>
  401df7:	89 c2                	mov    %eax,%edx
  401df9:	8b 42 08             	mov    0x8(%edx),%eax
  401dfc:	85 c0                	test   %eax,%eax
  401dfe:	75 f1                	jne    401df1 <____w64_mingwthr_remove_key_dtor+0x41>
  401e00:	c7 04 24 44 e0 40 00 	movl   $0x40e044,(%esp)
  401e07:	e8 0c 71 00 00       	call   408f18 <_LeaveCriticalSection@4>
  401e0c:	83 ec 04             	sub    $0x4,%esp
  401e0f:	83 c4 18             	add    $0x18,%esp
  401e12:	31 c0                	xor    %eax,%eax
  401e14:	5b                   	pop    %ebx
  401e15:	c3                   	ret    
  401e16:	8d 76 00             	lea    0x0(%esi),%esi
  401e19:	8d bc 27 00 00 00 00 	lea    0x0(%edi,%eiz,1),%edi
  401e20:	8b 48 08             	mov    0x8(%eax),%ecx
  401e23:	89 4a 08             	mov    %ecx,0x8(%edx)
  401e26:	89 04 24             	mov    %eax,(%esp)
  401e29:	e8 42 70 00 00       	call   408e70 <_free>
  401e2e:	c7 04 24 44 e0 40 00 	movl   $0x40e044,(%esp)
  401e35:	e8 de 70 00 00       	call   408f18 <_LeaveCriticalSection@4>
  401e3a:	83 ec 04             	sub    $0x4,%esp
  401e3d:	eb d0                	jmp    401e0f <____w64_mingwthr_remove_key_dtor+0x5f>
  401e3f:	8b 42 08             	mov    0x8(%edx),%eax
  401e42:	a3 3c e0 40 00       	mov    %eax,0x40e03c
  401e47:	89 d0                	mov    %edx,%eax
  401e49:	eb db                	jmp    401e26 <____w64_mingwthr_remove_key_dtor+0x76>
  401e4b:	90                   	nop
  401e4c:	8d 74 26 00          	lea    0x0(%esi,%eiz,1),%esi

00401e50 <___mingw_TLScallback>:
  401e50:	83 ec 1c             	sub    $0x1c,%esp
  401e53:	8b 44 24 24          	mov    0x24(%esp),%eax
  401e57:	83 f8 01             	cmp    $0x1,%eax
  401e5a:	74 47                	je     401ea3 <___mingw_TLScallback+0x53>
  401e5c:	72 17                	jb     401e75 <___mingw_TLScallback+0x25>
  401e5e:	83 f8 03             	cmp    $0x3,%eax
  401e61:	75 09                	jne    401e6c <___mingw_TLScallback+0x1c>
  401e63:	a1 40 e0 40 00       	mov    0x40e040,%eax
  401e68:	85 c0                	test   %eax,%eax
  401e6a:	75 65                	jne    401ed1 <___mingw_TLScallback+0x81>
  401e6c:	b8 01 00 00 00       	mov    $0x1,%eax
  401e71:	83 c4 1c             	add    $0x1c,%esp
  401e74:	c3                   	ret    
  401e75:	a1 40 e0 40 00       	mov    0x40e040,%eax
  401e7a:	85 c0                	test   %eax,%eax
  401e7c:	75 62                	jne    401ee0 <___mingw_TLScallback+0x90>
  401e7e:	a1 40 e0 40 00       	mov    0x40e040,%eax
  401e83:	83 f8 01             	cmp    $0x1,%eax
  401e86:	75 e4                	jne    401e6c <___mingw_TLScallback+0x1c>
  401e88:	c7 04 24 44 e0 40 00 	movl   $0x40e044,(%esp)
  401e8f:	c7 05 40 e0 40 00 00 	movl   $0x0,0x40e040
  401e96:	00 00 00 
  401e99:	e8 ea 70 00 00       	call   408f88 <_DeleteCriticalSection@4>
  401e9e:	83 ec 04             	sub    $0x4,%esp
  401ea1:	eb c9                	jmp    401e6c <___mingw_TLScallback+0x1c>
  401ea3:	a1 40 e0 40 00       	mov    0x40e040,%eax
  401ea8:	85 c0                	test   %eax,%eax
  401eaa:	74 14                	je     401ec0 <___mingw_TLScallback+0x70>
  401eac:	c7 05 40 e0 40 00 01 	movl   $0x1,0x40e040
  401eb3:	00 00 00 
  401eb6:	b8 01 00 00 00       	mov    $0x1,%eax
  401ebb:	83 c4 1c             	add    $0x1c,%esp
  401ebe:	c3                   	ret    
  401ebf:	90                   	nop
  401ec0:	c7 04 24 44 e0 40 00 	movl   $0x40e044,(%esp)
  401ec7:	e8 64 70 00 00       	call   408f30 <_InitializeCriticalSection@4>
  401ecc:	83 ec 04             	sub    $0x4,%esp
  401ecf:	eb db                	jmp    401eac <___mingw_TLScallback+0x5c>
  401ed1:	e8 fa fd ff ff       	call   401cd0 <.text>
  401ed6:	eb 94                	jmp    401e6c <___mingw_TLScallback+0x1c>
  401ed8:	90                   	nop
  401ed9:	8d b4 26 00 00 00 00 	lea    0x0(%esi,%eiz,1),%esi
  401ee0:	e8 eb fd ff ff       	call   401cd0 <.text>
  401ee5:	eb 97                	jmp    401e7e <___mingw_TLScallback+0x2e>
  401ee7:	90                   	nop
  401ee8:	90                   	nop
  401ee9:	90                   	nop
  401eea:	90                   	nop
  401eeb:	90                   	nop
  401eec:	90                   	nop
  401eed:	90                   	nop
  401eee:	90                   	nop
  401eef:	90                   	nop

00401ef0 <.text>:
  401ef0:	56                   	push   %esi
  401ef1:	53                   	push   %ebx
  401ef2:	83 ec 14             	sub    $0x14,%esp
  401ef5:	a1 d8 f1 40 00       	mov    0x40f1d8,%eax
  401efa:	c7 44 24 08 17 00 00 	movl   $0x17,0x8(%esp)
  401f01:	00 
  401f02:	c7 44 24 04 01 00 00 	movl   $0x1,0x4(%esp)
  401f09:	00 
  401f0a:	8d 74 24 24          	lea    0x24(%esp),%esi
  401f0e:	c7 04 24 70 b0 40 00 	movl   $0x40b070,(%esp)
  401f15:	8d 58 40             	lea    0x40(%eax),%ebx
  401f18:	89 5c 24 0c          	mov    %ebx,0xc(%esp)
  401f1c:	e8 47 6f 00 00       	call   408e68 <_fwrite>
  401f21:	8b 44 24 20          	mov    0x20(%esp),%eax
  401f25:	89 74 24 08          	mov    %esi,0x8(%esp)
  401f29:	89 1c 24             	mov    %ebx,(%esp)
  401f2c:	89 44 24 04          	mov    %eax,0x4(%esp)
  401f30:	e8 cb 6e 00 00       	call   408e00 <_vfprintf>
  401f35:	e8 56 6f 00 00       	call   408e90 <_abort>
  401f3a:	8d b6 00 00 00 00    	lea    0x0(%esi),%esi
  401f40:	55                   	push   %ebp
  401f41:	57                   	push   %edi
  401f42:	89 cf                	mov    %ecx,%edi
  401f44:	56                   	push   %esi
  401f45:	53                   	push   %ebx
  401f46:	89 c3                	mov    %eax,%ebx
  401f48:	89 d6                	mov    %edx,%esi
  401f4a:	83 ec 4c             	sub    $0x4c,%esp
  401f4d:	8d 44 24 24          	lea    0x24(%esp),%eax
  401f51:	c7 44 24 08 1c 00 00 	movl   $0x1c,0x8(%esp)
  401f58:	00 
  401f59:	89 1c 24             	mov    %ebx,(%esp)
  401f5c:	89 44 24 04          	mov    %eax,0x4(%esp)
  401f60:	e8 7b 6f 00 00       	call   408ee0 <_VirtualQuery@12>
  401f65:	83 ec 0c             	sub    $0xc,%esp
  401f68:	85 c0                	test   %eax,%eax
  401f6a:	0f 84 a8 00 00 00    	je     402018 <.text+0x128>
  401f70:	8b 44 24 38          	mov    0x38(%esp),%eax
  401f74:	83 f8 40             	cmp    $0x40,%eax
  401f77:	74 05                	je     401f7e <.text+0x8e>
  401f79:	83 f8 04             	cmp    $0x4,%eax
  401f7c:	75 22                	jne    401fa0 <.text+0xb0>
  401f7e:	89 7c 24 08          	mov    %edi,0x8(%esp)
  401f82:	89 74 24 04          	mov    %esi,0x4(%esp)
  401f86:	89 1c 24             	mov    %ebx,(%esp)
  401f89:	e8 b2 6e 00 00       	call   408e40 <_memcpy>
  401f8e:	83 c4 4c             	add    $0x4c,%esp
  401f91:	5b                   	pop    %ebx
  401f92:	5e                   	pop    %esi
  401f93:	5f                   	pop    %edi
  401f94:	5d                   	pop    %ebp
  401f95:	c3                   	ret    
  401f96:	8d 76 00             	lea    0x0(%esi),%esi
  401f99:	8d bc 27 00 00 00 00 	lea    0x0(%edi,%eiz,1),%edi
  401fa0:	8b 44 24 30          	mov    0x30(%esp),%eax
  401fa4:	8d 6c 24 20          	lea    0x20(%esp),%ebp
  401fa8:	c7 44 24 08 40 00 00 	movl   $0x40,0x8(%esp)
  401faf:	00 
  401fb0:	89 6c 24 0c          	mov    %ebp,0xc(%esp)
  401fb4:	89 44 24 04          	mov    %eax,0x4(%esp)
  401fb8:	8b 44 24 24          	mov    0x24(%esp),%eax
  401fbc:	89 04 24             	mov    %eax,(%esp)
  401fbf:	e8 24 6f 00 00       	call   408ee8 <_VirtualProtect@16>
  401fc4:	83 ec 10             	sub    $0x10,%esp
  401fc7:	8b 54 24 38          	mov    0x38(%esp),%edx
  401fcb:	89 7c 24 08          	mov    %edi,0x8(%esp)
  401fcf:	89 74 24 04          	mov    %esi,0x4(%esp)
  401fd3:	89 1c 24             	mov    %ebx,(%esp)
  401fd6:	89 54 24 1c          	mov    %edx,0x1c(%esp)
  401fda:	e8 61 6e 00 00       	call   408e40 <_memcpy>
  401fdf:	8b 54 24 1c          	mov    0x1c(%esp),%edx
  401fe3:	83 fa 40             	cmp    $0x40,%edx
  401fe6:	74 a6                	je     401f8e <.text+0x9e>
  401fe8:	83 fa 04             	cmp    $0x4,%edx
  401feb:	74 a1                	je     401f8e <.text+0x9e>
  401fed:	8b 44 24 20          	mov    0x20(%esp),%eax
  401ff1:	89 6c 24 0c          	mov    %ebp,0xc(%esp)
  401ff5:	89 44 24 08          	mov    %eax,0x8(%esp)
  401ff9:	8b 44 24 30          	mov    0x30(%esp),%eax
  401ffd:	89 44 24 04          	mov    %eax,0x4(%esp)
  402001:	8b 44 24 24          	mov    0x24(%esp),%eax
  402005:	89 04 24             	mov    %eax,(%esp)
  402008:	e8 db 6e 00 00       	call   408ee8 <_VirtualProtect@16>
  40200d:	83 ec 10             	sub    $0x10,%esp
  402010:	83 c4 4c             	add    $0x4c,%esp
  402013:	5b                   	pop    %ebx
  402014:	5e                   	pop    %esi
  402015:	5f                   	pop    %edi
  402016:	5d                   	pop    %ebp
  402017:	c3                   	ret    
  402018:	89 5c 24 08          	mov    %ebx,0x8(%esp)
  40201c:	c7 44 24 04 1c 00 00 	movl   $0x1c,0x4(%esp)
  402023:	00 
  402024:	c7 04 24 88 b0 40 00 	movl   $0x40b088,(%esp)
  40202b:	e8 c0 fe ff ff       	call   401ef0 <.text>

00402030 <__pei386_runtime_relocator>:
  402030:	a1 5c e0 40 00       	mov    0x40e05c,%eax
  402035:	85 c0                	test   %eax,%eax
  402037:	74 07                	je     402040 <__pei386_runtime_relocator+0x10>
  402039:	c3                   	ret    
  40203a:	8d b6 00 00 00 00    	lea    0x0(%esi),%esi
  402040:	b8 48 b8 40 00       	mov    $0x40b848,%eax
  402045:	c7 05 5c e0 40 00 01 	movl   $0x1,0x40e05c
  40204c:	00 00 00 
  40204f:	2d 48 b8 40 00       	sub    $0x40b848,%eax
  402054:	83 f8 07             	cmp    $0x7,%eax
  402057:	7e e0                	jle    402039 <__pei386_runtime_relocator+0x9>
  402059:	57                   	push   %edi
  40205a:	56                   	push   %esi
  40205b:	53                   	push   %ebx
  40205c:	83 ec 20             	sub    $0x20,%esp
  40205f:	83 f8 0b             	cmp    $0xb,%eax
  402062:	0f 8e e8 00 00 00    	jle    402150 <__pei386_runtime_relocator+0x120>
  402068:	8b 35 48 b8 40 00    	mov    0x40b848,%esi
  40206e:	85 f6                	test   %esi,%esi
  402070:	0f 85 8f 00 00 00    	jne    402105 <__pei386_runtime_relocator+0xd5>
  402076:	8b 1d 4c b8 40 00    	mov    0x40b84c,%ebx
  40207c:	85 db                	test   %ebx,%ebx
  40207e:	0f 85 81 00 00 00    	jne    402105 <__pei386_runtime_relocator+0xd5>
  402084:	8b 0d 50 b8 40 00    	mov    0x40b850,%ecx
  40208a:	bb 54 b8 40 00       	mov    $0x40b854,%ebx
  40208f:	85 c9                	test   %ecx,%ecx
  402091:	0f 84 be 00 00 00    	je     402155 <__pei386_runtime_relocator+0x125>
  402097:	bb 48 b8 40 00       	mov    $0x40b848,%ebx
  40209c:	8b 43 08             	mov    0x8(%ebx),%eax
  40209f:	83 f8 01             	cmp    $0x1,%eax
  4020a2:	0f 85 43 01 00 00    	jne    4021eb <__pei386_runtime_relocator+0x1bb>
  4020a8:	83 c3 0c             	add    $0xc,%ebx
  4020ab:	81 fb 48 b8 40 00    	cmp    $0x40b848,%ebx
  4020b1:	0f 83 89 00 00 00    	jae    402140 <__pei386_runtime_relocator+0x110>
  4020b7:	8b 13                	mov    (%ebx),%edx
  4020b9:	8b 7b 04             	mov    0x4(%ebx),%edi
  4020bc:	8d b2 00 00 40 00    	lea    0x400000(%edx),%esi
  4020c2:	8b 8a 00 00 40 00    	mov    0x400000(%edx),%ecx
  4020c8:	0f b6 53 08          	movzbl 0x8(%ebx),%edx
  4020cc:	8d 87 00 00 40 00    	lea    0x400000(%edi),%eax
  4020d2:	83 fa 10             	cmp    $0x10,%edx
  4020d5:	0f 84 95 00 00 00    	je     402170 <__pei386_runtime_relocator+0x140>
  4020db:	83 fa 20             	cmp    $0x20,%edx
  4020de:	0f 84 ec 00 00 00    	je     4021d0 <__pei386_runtime_relocator+0x1a0>
  4020e4:	83 fa 08             	cmp    $0x8,%edx
  4020e7:	0f 84 b3 00 00 00    	je     4021a0 <__pei386_runtime_relocator+0x170>
  4020ed:	89 54 24 04          	mov    %edx,0x4(%esp)
  4020f1:	c7 04 24 f0 b0 40 00 	movl   $0x40b0f0,(%esp)
  4020f8:	c7 44 24 1c 00 00 00 	movl   $0x0,0x1c(%esp)
  4020ff:	00 
  402100:	e8 eb fd ff ff       	call   401ef0 <.text>
  402105:	bb 48 b8 40 00       	mov    $0x40b848,%ebx
  40210a:	81 fb 48 b8 40 00    	cmp    $0x40b848,%ebx
  402110:	73 2e                	jae    402140 <__pei386_runtime_relocator+0x110>
  402112:	8b 4b 04             	mov    0x4(%ebx),%ecx
  402115:	8b 13                	mov    (%ebx),%edx
  402117:	83 c3 08             	add    $0x8,%ebx
  40211a:	03 91 00 00 40 00    	add    0x400000(%ecx),%edx
  402120:	8d 81 00 00 40 00    	lea    0x400000(%ecx),%eax
  402126:	b9 04 00 00 00       	mov    $0x4,%ecx
  40212b:	89 54 24 1c          	mov    %edx,0x1c(%esp)
  40212f:	8d 54 24 1c          	lea    0x1c(%esp),%edx
  402133:	e8 08 fe ff ff       	call   401f40 <.text+0x50>
  402138:	81 fb 48 b8 40 00    	cmp    $0x40b848,%ebx
  40213e:	72 d2                	jb     402112 <__pei386_runtime_relocator+0xe2>
  402140:	83 c4 20             	add    $0x20,%esp
  402143:	5b                   	pop    %ebx
  402144:	5e                   	pop    %esi
  402145:	5f                   	pop    %edi
  402146:	c3                   	ret    
  402147:	89 f6                	mov    %esi,%esi
  402149:	8d bc 27 00 00 00 00 	lea    0x0(%edi,%eiz,1),%edi
  402150:	bb 48 b8 40 00       	mov    $0x40b848,%ebx
  402155:	8b 13                	mov    (%ebx),%edx
  402157:	85 d2                	test   %edx,%edx
  402159:	75 af                	jne    40210a <__pei386_runtime_relocator+0xda>
  40215b:	8b 43 04             	mov    0x4(%ebx),%eax
  40215e:	85 c0                	test   %eax,%eax
  402160:	0f 84 36 ff ff ff    	je     40209c <__pei386_runtime_relocator+0x6c>
  402166:	eb a2                	jmp    40210a <__pei386_runtime_relocator+0xda>
  402168:	90                   	nop
  402169:	8d b4 26 00 00 00 00 	lea    0x0(%esi,%eiz,1),%esi
  402170:	0f b7 97 00 00 40 00 	movzwl 0x400000(%edi),%edx
  402177:	66 85 d2             	test   %dx,%dx
  40217a:	79 06                	jns    402182 <__pei386_runtime_relocator+0x152>
  40217c:	81 ca 00 00 ff ff    	or     $0xffff0000,%edx
  402182:	29 f2                	sub    %esi,%edx
  402184:	01 d1                	add    %edx,%ecx
  402186:	8d 54 24 1c          	lea    0x1c(%esp),%edx
  40218a:	89 4c 24 1c          	mov    %ecx,0x1c(%esp)
  40218e:	b9 02 00 00 00       	mov    $0x2,%ecx
  402193:	e8 a8 fd ff ff       	call   401f40 <.text+0x50>
  402198:	e9 0b ff ff ff       	jmp    4020a8 <__pei386_runtime_relocator+0x78>
  40219d:	8d 76 00             	lea    0x0(%esi),%esi
  4021a0:	0f b6 38             	movzbl (%eax),%edi
  4021a3:	89 fa                	mov    %edi,%edx
  4021a5:	84 d2                	test   %dl,%dl
  4021a7:	79 06                	jns    4021af <__pei386_runtime_relocator+0x17f>
  4021a9:	81 cf 00 ff ff ff    	or     $0xffffff00,%edi
  4021af:	29 f7                	sub    %esi,%edi
  4021b1:	8d 54 24 1c          	lea    0x1c(%esp),%edx
  4021b5:	01 f9                	add    %edi,%ecx
  4021b7:	89 4c 24 1c          	mov    %ecx,0x1c(%esp)
  4021bb:	b9 01 00 00 00       	mov    $0x1,%ecx
  4021c0:	e8 7b fd ff ff       	call   401f40 <.text+0x50>
  4021c5:	e9 de fe ff ff       	jmp    4020a8 <__pei386_runtime_relocator+0x78>
  4021ca:	8d b6 00 00 00 00    	lea    0x0(%esi),%esi
  4021d0:	29 f1                	sub    %esi,%ecx
  4021d2:	03 08                	add    (%eax),%ecx
  4021d4:	8d 54 24 1c          	lea    0x1c(%esp),%edx
  4021d8:	89 4c 24 1c          	mov    %ecx,0x1c(%esp)
  4021dc:	b9 04 00 00 00       	mov    $0x4,%ecx
  4021e1:	e8 5a fd ff ff       	call   401f40 <.text+0x50>
  4021e6:	e9 bd fe ff ff       	jmp    4020a8 <__pei386_runtime_relocator+0x78>
  4021eb:	89 44 24 04          	mov    %eax,0x4(%esp)
  4021ef:	c7 04 24 bc b0 40 00 	movl   $0x40b0bc,(%esp)
  4021f6:	e8 f5 fc ff ff       	call   401ef0 <.text>
  4021fb:	90                   	nop
  4021fc:	90                   	nop
  4021fd:	90                   	nop
  4021fe:	90                   	nop
  4021ff:	90                   	nop

00402200 <___chkstk_ms>:
  402200:	51                   	push   %ecx
  402201:	50                   	push   %eax
  402202:	3d 00 10 00 00       	cmp    $0x1000,%eax
  402207:	8d 4c 24 0c          	lea    0xc(%esp),%ecx
  40220b:	72 15                	jb     402222 <___chkstk_ms+0x22>
  40220d:	81 e9 00 10 00 00    	sub    $0x1000,%ecx
  402213:	83 09 00             	orl    $0x0,(%ecx)
  402216:	2d 00 10 00 00       	sub    $0x1000,%eax
  40221b:	3d 00 10 00 00       	cmp    $0x1000,%eax
  402220:	77 eb                	ja     40220d <___chkstk_ms+0xd>
  402222:	29 c1                	sub    %eax,%ecx
  402224:	83 09 00             	orl    $0x0,(%ecx)
  402227:	58                   	pop    %eax
  402228:	59                   	pop    %ecx
  402229:	c3                   	ret    
  40222a:	90                   	nop
  40222b:	90                   	nop

0040222c <.text>:
  40222c:	66 90                	xchg   %ax,%ax
  40222e:	66 90                	xchg   %ax,%ax

00402230 <___mingw_vprintf>:
  402230:	83 ec 2c             	sub    $0x2c,%esp
  402233:	8b 44 24 34          	mov    0x34(%esp),%eax
  402237:	c7 44 24 08 00 00 00 	movl   $0x0,0x8(%esp)
  40223e:	00 
  40223f:	c7 04 24 00 30 00 00 	movl   $0x3000,(%esp)
  402246:	89 44 24 10          	mov    %eax,0x10(%esp)
  40224a:	8b 44 24 30          	mov    0x30(%esp),%eax
  40224e:	89 44 24 0c          	mov    %eax,0xc(%esp)
  402252:	a1 d8 f1 40 00       	mov    0x40f1d8,%eax
  402257:	83 c0 20             	add    $0x20,%eax
  40225a:	89 44 24 04          	mov    %eax,0x4(%esp)
  40225e:	e8 8d 2f 00 00       	call   4051f0 <___mingw_pformat>
  402263:	83 c4 2c             	add    $0x2c,%esp
  402266:	c3                   	ret    
  402267:	90                   	nop
  402268:	90                   	nop
  402269:	90                   	nop
  40226a:	90                   	nop
  40226b:	90                   	nop
  40226c:	90                   	nop
  40226d:	90                   	nop
  40226e:	90                   	nop
  40226f:	90                   	nop

00402270 <.text>:
  402270:	85 c0                	test   %eax,%eax
  402272:	0f 84 80 00 00 00    	je     4022f8 <.text+0x88>
  402278:	c1 ea 05             	shr    $0x5,%edx
  40227b:	56                   	push   %esi
  40227c:	53                   	push   %ebx
  40227d:	83 f2 01             	xor    $0x1,%edx
  402280:	31 db                	xor    %ebx,%ebx
  402282:	83 e2 01             	and    $0x1,%edx
  402285:	0f be 08             	movsbl (%eax),%ecx
  402288:	85 c9                	test   %ecx,%ecx
  40228a:	74 29                	je     4022b5 <.text+0x45>
  40228c:	84 d2                	test   %dl,%dl
  40228e:	74 05                	je     402295 <.text+0x25>
  402290:	83 f9 7f             	cmp    $0x7f,%ecx
  402293:	74 4b                	je     4022e0 <.text+0x70>
  402295:	83 c0 01             	add    $0x1,%eax
  402298:	85 db                	test   %ebx,%ebx
  40229a:	75 24                	jne    4022c0 <.text+0x50>
  40229c:	83 f9 2a             	cmp    $0x2a,%ecx
  40229f:	74 4f                	je     4022f0 <.text+0x80>
  4022a1:	83 f9 3f             	cmp    $0x3f,%ecx
  4022a4:	74 4a                	je     4022f0 <.text+0x80>
  4022a6:	31 db                	xor    %ebx,%ebx
  4022a8:	83 f9 5b             	cmp    $0x5b,%ecx
  4022ab:	0f be 08             	movsbl (%eax),%ecx
  4022ae:	0f 94 c3             	sete   %bl
  4022b1:	85 c9                	test   %ecx,%ecx
  4022b3:	75 d7                	jne    40228c <.text+0x1c>
  4022b5:	31 c0                	xor    %eax,%eax
  4022b7:	5b                   	pop    %ebx
  4022b8:	5e                   	pop    %esi
  4022b9:	c3                   	ret    
  4022ba:	8d b6 00 00 00 00    	lea    0x0(%esi),%esi
  4022c0:	83 fb 01             	cmp    $0x1,%ebx
  4022c3:	7e 05                	jle    4022ca <.text+0x5a>
  4022c5:	83 f9 5d             	cmp    $0x5d,%ecx
  4022c8:	74 26                	je     4022f0 <.text+0x80>
  4022ca:	83 f9 21             	cmp    $0x21,%ecx
  4022cd:	0f 95 c1             	setne  %cl
  4022d0:	0f b6 c9             	movzbl %cl,%ecx
  4022d3:	01 cb                	add    %ecx,%ebx
  4022d5:	eb ae                	jmp    402285 <.text+0x15>
  4022d7:	89 f6                	mov    %esi,%esi
  4022d9:	8d bc 27 00 00 00 00 	lea    0x0(%edi,%eiz,1),%edi
  4022e0:	80 78 01 00          	cmpb   $0x0,0x1(%eax)
  4022e4:	8d 70 02             	lea    0x2(%eax),%esi
  4022e7:	74 cc                	je     4022b5 <.text+0x45>
  4022e9:	89 f0                	mov    %esi,%eax
  4022eb:	eb ab                	jmp    402298 <.text+0x28>
  4022ed:	8d 76 00             	lea    0x0(%esi),%esi
  4022f0:	b8 01 00 00 00       	mov    $0x1,%eax
  4022f5:	5b                   	pop    %ebx
  4022f6:	5e                   	pop    %esi
  4022f7:	c3                   	ret    
  4022f8:	31 c0                	xor    %eax,%eax
  4022fa:	c3                   	ret    
  4022fb:	90                   	nop
  4022fc:	8d 74 26 00          	lea    0x0(%esi,%eiz,1),%esi
  402300:	55                   	push   %ebp
  402301:	57                   	push   %edi
  402302:	89 cd                	mov    %ecx,%ebp
  402304:	56                   	push   %esi
  402305:	53                   	push   %ebx
  402306:	0f be 38             	movsbl (%eax),%edi
  402309:	83 ff 5d             	cmp    $0x5d,%edi
  40230c:	0f 84 9e 00 00 00    	je     4023b0 <.text+0x140>
  402312:	83 ff 2d             	cmp    $0x2d,%edi
  402315:	89 f9                	mov    %edi,%ecx
  402317:	75 24                	jne    40233d <.text+0xcd>
  402319:	e9 92 00 00 00       	jmp    4023b0 <.text+0x140>
  40231e:	66 90                	xchg   %ax,%ax
  402320:	85 db                	test   %ebx,%ebx
  402322:	74 75                	je     402399 <.text+0x129>
  402324:	83 fb 2f             	cmp    $0x2f,%ebx
  402327:	74 70                	je     402399 <.text+0x129>
  402329:	83 fb 5c             	cmp    $0x5c,%ebx
  40232c:	74 6b                	je     402399 <.text+0x129>
  40232e:	89 df                	mov    %ebx,%edi
  402330:	0f b6 0e             	movzbl (%esi),%ecx
  402333:	89 f0                	mov    %esi,%eax
  402335:	39 fa                	cmp    %edi,%edx
  402337:	0f 84 97 00 00 00    	je     4023d4 <.text+0x164>
  40233d:	0f be d9             	movsbl %cl,%ebx
  402340:	8d 70 01             	lea    0x1(%eax),%esi
  402343:	83 fb 5d             	cmp    $0x5d,%ebx
  402346:	74 51                	je     402399 <.text+0x129>
  402348:	83 fb 2d             	cmp    $0x2d,%ebx
  40234b:	75 d3                	jne    402320 <.text+0xb0>
  40234d:	0f be 58 01          	movsbl 0x1(%eax),%ebx
  402351:	80 fb 5d             	cmp    $0x5d,%bl
  402354:	74 6a                	je     4023c0 <.text+0x150>
  402356:	85 db                	test   %ebx,%ebx
  402358:	74 3f                	je     402399 <.text+0x129>
  40235a:	39 df                	cmp    %ebx,%edi
  40235c:	8d 70 02             	lea    0x2(%eax),%esi
  40235f:	0f 8d 00 01 00 00    	jge    402465 <.text+0x1f5>
  402365:	39 d7                	cmp    %edx,%edi
  402367:	8d 47 01             	lea    0x1(%edi),%eax
  40236a:	74 12                	je     40237e <.text+0x10e>
  40236c:	8d 74 26 00          	lea    0x0(%esi,%eiz,1),%esi
  402370:	39 c3                	cmp    %eax,%ebx
  402372:	74 b0                	je     402324 <.text+0xb4>
  402374:	83 c0 01             	add    $0x1,%eax
  402377:	8d 78 ff             	lea    -0x1(%eax),%edi
  40237a:	39 fa                	cmp    %edi,%edx
  40237c:	75 f2                	jne    402370 <.text+0x100>
  40237e:	89 e9                	mov    %ebp,%ecx
  402380:	83 e1 20             	and    $0x20,%ecx
  402383:	0f b6 06             	movzbl (%esi),%eax
  402386:	3c 5d                	cmp    $0x5d,%al
  402388:	0f 84 7d 00 00 00    	je     40240b <.text+0x19b>
  40238e:	3c 7f                	cmp    $0x7f,%al
  402390:	74 0e                	je     4023a0 <.text+0x130>
  402392:	83 c6 01             	add    $0x1,%esi
  402395:	84 c0                	test   %al,%al
  402397:	75 ea                	jne    402383 <.text+0x113>
  402399:	5b                   	pop    %ebx
  40239a:	31 c0                	xor    %eax,%eax
  40239c:	5e                   	pop    %esi
  40239d:	5f                   	pop    %edi
  40239e:	5d                   	pop    %ebp
  40239f:	c3                   	ret    
  4023a0:	85 c9                	test   %ecx,%ecx
  4023a2:	75 5d                	jne    402401 <.text+0x191>
  4023a4:	0f b6 46 01          	movzbl 0x1(%esi),%eax
  4023a8:	83 c6 01             	add    $0x1,%esi
  4023ab:	eb e5                	jmp    402392 <.text+0x122>
  4023ad:	8d 76 00             	lea    0x0(%esi),%esi
  4023b0:	39 d7                	cmp    %edx,%edi
  4023b2:	74 5f                	je     402413 <.text+0x1a3>
  4023b4:	0f b6 48 01          	movzbl 0x1(%eax),%ecx
  4023b8:	83 c0 01             	add    $0x1,%eax
  4023bb:	eb 80                	jmp    40233d <.text+0xcd>
  4023bd:	8d 76 00             	lea    0x0(%esi),%esi
  4023c0:	bf 2d 00 00 00       	mov    $0x2d,%edi
  4023c5:	89 f0                	mov    %esi,%eax
  4023c7:	b9 5d 00 00 00       	mov    $0x5d,%ecx
  4023cc:	39 fa                	cmp    %edi,%edx
  4023ce:	0f 85 69 ff ff ff    	jne    40233d <.text+0xcd>
  4023d4:	89 ea                	mov    %ebp,%edx
  4023d6:	83 e2 20             	and    $0x20,%edx
  4023d9:	eb 0f                	jmp    4023ea <.text+0x17a>
  4023db:	90                   	nop
  4023dc:	8d 74 26 00          	lea    0x0(%esi,%eiz,1),%esi
  4023e0:	83 c0 01             	add    $0x1,%eax
  4023e3:	84 c9                	test   %cl,%cl
  4023e5:	74 b2                	je     402399 <.text+0x129>
  4023e7:	0f b6 08             	movzbl (%eax),%ecx
  4023ea:	80 f9 5d             	cmp    $0x5d,%cl
  4023ed:	74 66                	je     402455 <.text+0x1e5>
  4023ef:	80 f9 7f             	cmp    $0x7f,%cl
  4023f2:	75 ec                	jne    4023e0 <.text+0x170>
  4023f4:	85 d2                	test   %edx,%edx
  4023f6:	75 68                	jne    402460 <.text+0x1f0>
  4023f8:	0f b6 48 01          	movzbl 0x1(%eax),%ecx
  4023fc:	83 c0 01             	add    $0x1,%eax
  4023ff:	eb df                	jmp    4023e0 <.text+0x170>
  402401:	83 c6 01             	add    $0x1,%esi
  402404:	0f b6 06             	movzbl (%esi),%eax
  402407:	3c 5d                	cmp    $0x5d,%al
  402409:	75 83                	jne    40238e <.text+0x11e>
  40240b:	5b                   	pop    %ebx
  40240c:	8d 46 01             	lea    0x1(%esi),%eax
  40240f:	5e                   	pop    %esi
  402410:	5f                   	pop    %edi
  402411:	5d                   	pop    %ebp
  402412:	c3                   	ret    
  402413:	89 e9                	mov    %ebp,%ecx
  402415:	83 c0 01             	add    $0x1,%eax
  402418:	83 e1 20             	and    $0x20,%ecx
  40241b:	90                   	nop
  40241c:	8d 74 26 00          	lea    0x0(%esi,%eiz,1),%esi
  402420:	0f b6 10             	movzbl (%eax),%edx
  402423:	80 fa 5d             	cmp    $0x5d,%dl
  402426:	74 2d                	je     402455 <.text+0x1e5>
  402428:	80 fa 7f             	cmp    $0x7f,%dl
  40242b:	74 13                	je     402440 <.text+0x1d0>
  40242d:	83 c0 01             	add    $0x1,%eax
  402430:	84 d2                	test   %dl,%dl
  402432:	75 ec                	jne    402420 <.text+0x1b0>
  402434:	e9 60 ff ff ff       	jmp    402399 <.text+0x129>
  402439:	8d b4 26 00 00 00 00 	lea    0x0(%esi,%eiz,1),%esi
  402440:	85 c9                	test   %ecx,%ecx
  402442:	75 0c                	jne    402450 <.text+0x1e0>
  402444:	0f b6 50 01          	movzbl 0x1(%eax),%edx
  402448:	83 c0 01             	add    $0x1,%eax
  40244b:	eb e0                	jmp    40242d <.text+0x1bd>
  40244d:	8d 76 00             	lea    0x0(%esi),%esi
  402450:	83 c0 01             	add    $0x1,%eax
  402453:	eb cb                	jmp    402420 <.text+0x1b0>
  402455:	5b                   	pop    %ebx
  402456:	83 c0 01             	add    $0x1,%eax
  402459:	5e                   	pop    %esi
  40245a:	5f                   	pop    %edi
  40245b:	5d                   	pop    %ebp
  40245c:	c3                   	ret    
  40245d:	8d 76 00             	lea    0x0(%esi),%esi
  402460:	83 c0 01             	add    $0x1,%eax
  402463:	eb 82                	jmp    4023e7 <.text+0x177>
  402465:	0f 8e b9 fe ff ff    	jle    402324 <.text+0xb4>
  40246b:	39 d7                	cmp    %edx,%edi
  40246d:	74 12                	je     402481 <.text+0x211>
  40246f:	8d 43 01             	lea    0x1(%ebx),%eax
  402472:	39 f8                	cmp    %edi,%eax
  402474:	0f 84 aa fe ff ff    	je     402324 <.text+0xb4>
  40247a:	83 ef 01             	sub    $0x1,%edi
  40247d:	39 fa                	cmp    %edi,%edx
  40247f:	75 f1                	jne    402472 <.text+0x202>
  402481:	89 e9                	mov    %ebp,%ecx
  402483:	83 e1 20             	and    $0x20,%ecx
  402486:	8d 76 00             	lea    0x0(%esi),%esi
  402489:	8d bc 27 00 00 00 00 	lea    0x0(%edi,%eiz,1),%edi
  402490:	0f b6 06             	movzbl (%esi),%eax
  402493:	3c 5d                	cmp    $0x5d,%al
  402495:	0f 84 70 ff ff ff    	je     40240b <.text+0x19b>
  40249b:	3c 7f                	cmp    $0x7f,%al
  40249d:	74 11                	je     4024b0 <.text+0x240>
  40249f:	83 c6 01             	add    $0x1,%esi
  4024a2:	84 c0                	test   %al,%al
  4024a4:	75 ea                	jne    402490 <.text+0x220>
  4024a6:	e9 ee fe ff ff       	jmp    402399 <.text+0x129>
  4024ab:	90                   	nop
  4024ac:	8d 74 26 00          	lea    0x0(%esi,%eiz,1),%esi
  4024b0:	85 c9                	test   %ecx,%ecx
  4024b2:	75 0c                	jne    4024c0 <.text+0x250>
  4024b4:	0f b6 46 01          	movzbl 0x1(%esi),%eax
  4024b8:	83 c6 01             	add    $0x1,%esi
  4024bb:	eb e2                	jmp    40249f <.text+0x22f>
  4024bd:	8d 76 00             	lea    0x0(%esi),%esi
  4024c0:	83 c6 01             	add    $0x1,%esi
  4024c3:	eb cb                	jmp    402490 <.text+0x220>
  4024c5:	8d 74 26 00          	lea    0x0(%esi,%eiz,1),%esi
  4024c9:	8d bc 27 00 00 00 00 	lea    0x0(%edi,%eiz,1),%edi
  4024d0:	85 c0                	test   %eax,%eax
  4024d2:	74 5c                	je     402530 <.text+0x2c0>
  4024d4:	55                   	push   %ebp
  4024d5:	57                   	push   %edi
  4024d6:	89 c7                	mov    %eax,%edi
  4024d8:	56                   	push   %esi
  4024d9:	53                   	push   %ebx
  4024da:	83 ec 1c             	sub    $0x1c,%esp
  4024dd:	8b 40 0c             	mov    0xc(%eax),%eax
  4024e0:	8d 58 01             	lea    0x1(%eax),%ebx
  4024e3:	8d 34 9d 00 00 00 00 	lea    0x0(,%ebx,4),%esi
  4024ea:	89 34 24             	mov    %esi,(%esp)
  4024ed:	e8 5e 69 00 00       	call   408e50 <_malloc>
  4024f2:	89 c5                	mov    %eax,%ebp
  4024f4:	89 47 08             	mov    %eax,0x8(%edi)
  4024f7:	b8 03 00 00 00       	mov    $0x3,%eax
  4024fc:	85 ed                	test   %ebp,%ebp
  4024fe:	74 28                	je     402528 <.text+0x2b8>
  402500:	85 db                	test   %ebx,%ebx
  402502:	89 da                	mov    %ebx,%edx
  402504:	c7 47 04 00 00 00 00 	movl   $0x0,0x4(%edi)
  40250b:	7e 19                	jle    402526 <.text+0x2b6>
  40250d:	8d 4e fc             	lea    -0x4(%esi),%ecx
  402510:	89 e8                	mov    %ebp,%eax
  402512:	eb 03                	jmp    402517 <.text+0x2a7>
  402514:	8b 47 08             	mov    0x8(%edi),%eax
  402517:	c7 04 08 00 00 00 00 	movl   $0x0,(%eax,%ecx,1)
  40251e:	83 e9 04             	sub    $0x4,%ecx
  402521:	83 ea 01             	sub    $0x1,%edx
  402524:	75 ee                	jne    402514 <.text+0x2a4>
  402526:	31 c0                	xor    %eax,%eax
  402528:	83 c4 1c             	add    $0x1c,%esp
  40252b:	5b                   	pop    %ebx
  40252c:	5e                   	pop    %esi
  40252d:	5f                   	pop    %edi
  40252e:	5d                   	pop    %ebp
  40252f:	c3                   	ret    
  402530:	31 c0                	xor    %eax,%eax
  402532:	c3                   	ret    
  402533:	8d b6 00 00 00 00    	lea    0x0(%esi),%esi
  402539:	8d bc 27 00 00 00 00 	lea    0x0(%edi,%eiz,1),%edi
  402540:	55                   	push   %ebp
  402541:	57                   	push   %edi
  402542:	89 c5                	mov    %eax,%ebp
  402544:	56                   	push   %esi
  402545:	53                   	push   %ebx
  402546:	83 ec 2c             	sub    $0x2c,%esp
  402549:	80 3a 2e             	cmpb   $0x2e,(%edx)
  40254c:	89 4c 24 14          	mov    %ecx,0x14(%esp)
  402550:	0f 84 3a 01 00 00    	je     402690 <.text+0x420>
  402556:	0f b6 08             	movzbl (%eax),%ecx
  402559:	8b 44 24 14          	mov    0x14(%esp),%eax
  40255d:	8d 7a 01             	lea    0x1(%edx),%edi
  402560:	c1 e8 05             	shr    $0x5,%eax
  402563:	83 f0 01             	xor    $0x1,%eax
  402566:	89 44 24 18          	mov    %eax,0x18(%esp)
  40256a:	0f be d1             	movsbl %cl,%edx
  40256d:	8d 77 ff             	lea    -0x1(%edi),%esi
  402570:	8d 45 01             	lea    0x1(%ebp),%eax
  402573:	85 d2                	test   %edx,%edx
  402575:	0f 84 73 01 00 00    	je     4026ee <.text+0x47e>
  40257b:	80 f9 3f             	cmp    $0x3f,%cl
  40257e:	0f 84 ef 00 00 00    	je     402673 <.text+0x403>
  402584:	80 f9 5b             	cmp    $0x5b,%cl
  402587:	0f 84 b5 00 00 00    	je     402642 <.text+0x3d2>
  40258d:	80 f9 2a             	cmp    $0x2a,%cl
  402590:	74 5e                	je     4025f0 <.text+0x380>
  402592:	f6 44 24 18 01       	testb  $0x1,0x18(%esp)
  402597:	74 09                	je     4025a2 <.text+0x332>
  402599:	83 fa 7f             	cmp    $0x7f,%edx
  40259c:	0f 84 2e 01 00 00    	je     4026d0 <.text+0x460>
  4025a2:	89 c5                	mov    %eax,%ebp
  4025a4:	0f be 5f ff          	movsbl -0x1(%edi),%ebx
  4025a8:	84 db                	test   %bl,%bl
  4025aa:	0f 84 a0 01 00 00    	je     402750 <.text+0x4e0>
  4025b0:	f7 44 24 14 00 40 00 	testl  $0x4000,0x14(%esp)
  4025b7:	00 
  4025b8:	0f 85 c3 00 00 00    	jne    402681 <.text+0x411>
  4025be:	89 14 24             	mov    %edx,(%esp)
  4025c1:	89 54 24 1c          	mov    %edx,0x1c(%esp)
  4025c5:	e8 3e 68 00 00       	call   408e08 <_tolower>
  4025ca:	89 1c 24             	mov    %ebx,(%esp)
  4025cd:	89 c6                	mov    %eax,%esi
  4025cf:	e8 34 68 00 00       	call   408e08 <_tolower>
  4025d4:	8b 54 24 1c          	mov    0x1c(%esp),%edx
  4025d8:	29 c6                	sub    %eax,%esi
  4025da:	85 f6                	test   %esi,%esi
  4025dc:	0f 84 85 00 00 00    	je     402667 <.text+0x3f7>
  4025e2:	89 d0                	mov    %edx,%eax
  4025e4:	29 d8                	sub    %ebx,%eax
  4025e6:	83 c4 2c             	add    $0x2c,%esp
  4025e9:	5b                   	pop    %ebx
  4025ea:	5e                   	pop    %esi
  4025eb:	5f                   	pop    %edi
  4025ec:	5d                   	pop    %ebp
  4025ed:	c3                   	ret    
  4025ee:	66 90                	xchg   %ax,%ax
  4025f0:	0f b6 55 01          	movzbl 0x1(%ebp),%edx
  4025f4:	89 c3                	mov    %eax,%ebx
  4025f6:	80 fa 2a             	cmp    $0x2a,%dl
  4025f9:	75 10                	jne    40260b <.text+0x39b>
  4025fb:	90                   	nop
  4025fc:	8d 74 26 00          	lea    0x0(%esi,%eiz,1),%esi
  402600:	83 c3 01             	add    $0x1,%ebx
  402603:	0f b6 13             	movzbl (%ebx),%edx
  402606:	80 fa 2a             	cmp    $0x2a,%dl
  402609:	74 f5                	je     402600 <.text+0x390>
  40260b:	31 c0                	xor    %eax,%eax
  40260d:	84 d2                	test   %dl,%dl
  40260f:	74 d5                	je     4025e6 <.text+0x376>
  402611:	8b 7c 24 14          	mov    0x14(%esp),%edi
  402615:	81 cf 00 00 01 00    	or     $0x10000,%edi
  40261b:	eb 0c                	jmp    402629 <.text+0x3b9>
  40261d:	8d 76 00             	lea    0x0(%esi),%esi
  402620:	83 c6 01             	add    $0x1,%esi
  402623:	80 7e ff 00          	cmpb   $0x0,-0x1(%esi)
  402627:	74 bd                	je     4025e6 <.text+0x376>
  402629:	89 f9                	mov    %edi,%ecx
  40262b:	89 f2                	mov    %esi,%edx
  40262d:	89 d8                	mov    %ebx,%eax
  40262f:	e8 0c ff ff ff       	call   402540 <.text+0x2d0>
  402634:	85 c0                	test   %eax,%eax
  402636:	75 e8                	jne    402620 <.text+0x3b0>
  402638:	83 c4 2c             	add    $0x2c,%esp
  40263b:	31 c0                	xor    %eax,%eax
  40263d:	5b                   	pop    %ebx
  40263e:	5e                   	pop    %esi
  40263f:	5f                   	pop    %edi
  402640:	5d                   	pop    %ebp
  402641:	c3                   	ret    
  402642:	0f be 57 ff          	movsbl -0x1(%edi),%edx
  402646:	85 d2                	test   %edx,%edx
  402648:	0f 84 f8 00 00 00    	je     402746 <.text+0x4d6>
  40264e:	80 7d 01 21          	cmpb   $0x21,0x1(%ebp)
  402652:	74 5c                	je     4026b0 <.text+0x440>
  402654:	8b 4c 24 14          	mov    0x14(%esp),%ecx
  402658:	e8 a3 fc ff ff       	call   402300 <.text+0x90>
  40265d:	89 c5                	mov    %eax,%ebp
  40265f:	85 ed                	test   %ebp,%ebp
  402661:	0f 84 d5 00 00 00    	je     40273c <.text+0x4cc>
  402667:	0f b6 4d 00          	movzbl 0x0(%ebp),%ecx
  40266b:	83 c7 01             	add    $0x1,%edi
  40266e:	e9 f7 fe ff ff       	jmp    40256a <.text+0x2fa>
  402673:	80 7f ff 00          	cmpb   $0x0,-0x1(%edi)
  402677:	0f 84 da 00 00 00    	je     402757 <.text+0x4e7>
  40267d:	89 c5                	mov    %eax,%ebp
  40267f:	eb e6                	jmp    402667 <.text+0x3f7>
  402681:	89 d6                	mov    %edx,%esi
  402683:	29 de                	sub    %ebx,%esi
  402685:	e9 50 ff ff ff       	jmp    4025da <.text+0x36a>
  40268a:	8d b6 00 00 00 00    	lea    0x0(%esi),%esi
  402690:	0f be 00             	movsbl (%eax),%eax
  402693:	3c 2e                	cmp    $0x2e,%al
  402695:	74 4d                	je     4026e4 <.text+0x474>
  402697:	89 c1                	mov    %eax,%ecx
  402699:	83 e8 2e             	sub    $0x2e,%eax
  40269c:	f7 44 24 14 00 00 01 	testl  $0x10000,0x14(%esp)
  4026a3:	00 
  4026a4:	0f 85 af fe ff ff    	jne    402559 <.text+0x2e9>
  4026aa:	e9 37 ff ff ff       	jmp    4025e6 <.text+0x376>
  4026af:	90                   	nop
  4026b0:	8d 5d 02             	lea    0x2(%ebp),%ebx
  4026b3:	8b 4c 24 14          	mov    0x14(%esp),%ecx
  4026b7:	89 d8                	mov    %ebx,%eax
  4026b9:	e8 42 fc ff ff       	call   402300 <.text+0x90>
  4026be:	85 c0                	test   %eax,%eax
  4026c0:	74 36                	je     4026f8 <.text+0x488>
  4026c2:	89 dd                	mov    %ebx,%ebp
  4026c4:	eb a1                	jmp    402667 <.text+0x3f7>
  4026c6:	8d 76 00             	lea    0x0(%esi),%esi
  4026c9:	8d bc 27 00 00 00 00 	lea    0x0(%edi,%eiz,1),%edi
  4026d0:	0f be 55 01          	movsbl 0x1(%ebp),%edx
  4026d4:	83 c5 02             	add    $0x2,%ebp
  4026d7:	85 d2                	test   %edx,%edx
  4026d9:	0f 85 c5 fe ff ff    	jne    4025a4 <.text+0x334>
  4026df:	e9 be fe ff ff       	jmp    4025a2 <.text+0x332>
  4026e4:	b9 2e 00 00 00       	mov    $0x2e,%ecx
  4026e9:	e9 6b fe ff ff       	jmp    402559 <.text+0x2e9>
  4026ee:	0f be 06             	movsbl (%esi),%eax
  4026f1:	f7 d8                	neg    %eax
  4026f3:	e9 ee fe ff ff       	jmp    4025e6 <.text+0x376>
  4026f8:	0f b6 45 02          	movzbl 0x2(%ebp),%eax
  4026fc:	3c 5d                	cmp    $0x5d,%al
  4026fe:	74 61                	je     402761 <.text+0x4f1>
  402700:	8b 54 24 14          	mov    0x14(%esp),%edx
  402704:	83 e2 20             	and    $0x20,%edx
  402707:	eb 11                	jmp    40271a <.text+0x4aa>
  402709:	8d b4 26 00 00 00 00 	lea    0x0(%esi,%eiz,1),%esi
  402710:	83 c3 01             	add    $0x1,%ebx
  402713:	84 c0                	test   %al,%al
  402715:	74 25                	je     40273c <.text+0x4cc>
  402717:	0f b6 03             	movzbl (%ebx),%eax
  40271a:	3c 5d                	cmp    $0x5d,%al
  40271c:	74 16                	je     402734 <.text+0x4c4>
  40271e:	3c 7f                	cmp    $0x7f,%al
  402720:	75 ee                	jne    402710 <.text+0x4a0>
  402722:	85 d2                	test   %edx,%edx
  402724:	75 09                	jne    40272f <.text+0x4bf>
  402726:	0f b6 43 01          	movzbl 0x1(%ebx),%eax
  40272a:	83 c3 01             	add    $0x1,%ebx
  40272d:	eb e1                	jmp    402710 <.text+0x4a0>
  40272f:	83 c3 01             	add    $0x1,%ebx
  402732:	eb e3                	jmp    402717 <.text+0x4a7>
  402734:	8d 6b 01             	lea    0x1(%ebx),%ebp
  402737:	e9 23 ff ff ff       	jmp    40265f <.text+0x3ef>
  40273c:	b8 5d 00 00 00       	mov    $0x5d,%eax
  402741:	e9 a0 fe ff ff       	jmp    4025e6 <.text+0x376>
  402746:	b8 5b 00 00 00       	mov    $0x5b,%eax
  40274b:	e9 96 fe ff ff       	jmp    4025e6 <.text+0x376>
  402750:	31 db                	xor    %ebx,%ebx
  402752:	e9 8b fe ff ff       	jmp    4025e2 <.text+0x372>
  402757:	b8 3f 00 00 00       	mov    $0x3f,%eax
  40275c:	e9 85 fe ff ff       	jmp    4025e6 <.text+0x376>
  402761:	8d 5d 03             	lea    0x3(%ebp),%ebx
  402764:	0f b6 45 03          	movzbl 0x3(%ebp),%eax
  402768:	eb 96                	jmp    402700 <.text+0x490>
  40276a:	8d b6 00 00 00 00    	lea    0x0(%esi),%esi
  402770:	57                   	push   %edi
  402771:	56                   	push   %esi
  402772:	89 c6                	mov    %eax,%esi
  402774:	53                   	push   %ebx
  402775:	89 d3                	mov    %edx,%ebx
  402777:	83 ec 10             	sub    $0x10,%esp
  40277a:	8b 42 0c             	mov    0xc(%edx),%eax
  40277d:	03 42 04             	add    0x4(%edx),%eax
  402780:	8d 04 85 08 00 00 00 	lea    0x8(,%eax,4),%eax
  402787:	89 44 24 04          	mov    %eax,0x4(%esp)
  40278b:	8b 42 08             	mov    0x8(%edx),%eax
  40278e:	89 04 24             	mov    %eax,(%esp)
  402791:	e8 a2 66 00 00       	call   408e38 <_realloc>
  402796:	85 c0                	test   %eax,%eax
  402798:	74 29                	je     4027c3 <.text+0x553>
  40279a:	8b 4b 04             	mov    0x4(%ebx),%ecx
  40279d:	8b 7b 0c             	mov    0xc(%ebx),%edi
  4027a0:	89 43 08             	mov    %eax,0x8(%ebx)
  4027a3:	8d 51 01             	lea    0x1(%ecx),%edx
  4027a6:	01 f9                	add    %edi,%ecx
  4027a8:	89 53 04             	mov    %edx,0x4(%ebx)
  4027ab:	89 34 88             	mov    %esi,(%eax,%ecx,4)
  4027ae:	01 fa                	add    %edi,%edx
  4027b0:	8b 43 08             	mov    0x8(%ebx),%eax
  4027b3:	c7 04 90 00 00 00 00 	movl   $0x0,(%eax,%edx,4)
  4027ba:	83 c4 10             	add    $0x10,%esp
  4027bd:	31 c0                	xor    %eax,%eax
  4027bf:	5b                   	pop    %ebx
  4027c0:	5e                   	pop    %esi
  4027c1:	5f                   	pop    %edi
  4027c2:	c3                   	ret    
  4027c3:	83 c4 10             	add    $0x10,%esp
  4027c6:	b8 01 00 00 00       	mov    $0x1,%eax
  4027cb:	5b                   	pop    %ebx
  4027cc:	5e                   	pop    %esi
  4027cd:	5f                   	pop    %edi
  4027ce:	c3                   	ret    
  4027cf:	90                   	nop
  4027d0:	56                   	push   %esi
  4027d1:	53                   	push   %ebx
  4027d2:	89 c3                	mov    %eax,%ebx
  4027d4:	89 d6                	mov    %edx,%esi
  4027d6:	83 ec 14             	sub    $0x14,%esp
  4027d9:	8b 00                	mov    (%eax),%eax
  4027db:	85 c0                	test   %eax,%eax
  4027dd:	74 05                	je     4027e4 <.text+0x574>
  4027df:	e8 ec ff ff ff       	call   4027d0 <.text+0x560>
  4027e4:	8b 43 08             	mov    0x8(%ebx),%eax
  4027e7:	85 c0                	test   %eax,%eax
  4027e9:	74 04                	je     4027ef <.text+0x57f>
  4027eb:	85 f6                	test   %esi,%esi
  4027ed:	75 21                	jne    402810 <.text+0x5a0>
  4027ef:	8b 43 04             	mov    0x4(%ebx),%eax
  4027f2:	85 c0                	test   %eax,%eax
  4027f4:	74 07                	je     4027fd <.text+0x58d>
  4027f6:	89 f2                	mov    %esi,%edx
  4027f8:	e8 d3 ff ff ff       	call   4027d0 <.text+0x560>
  4027fd:	89 1c 24             	mov    %ebx,(%esp)
  402800:	e8 6b 66 00 00       	call   408e70 <_free>
  402805:	83 c4 14             	add    $0x14,%esp
  402808:	5b                   	pop    %ebx
  402809:	5e                   	pop    %esi
  40280a:	c3                   	ret    
  40280b:	90                   	nop
  40280c:	8d 74 26 00          	lea    0x0(%esi,%eiz,1),%esi
  402810:	89 f2                	mov    %esi,%edx
  402812:	e8 59 ff ff ff       	call   402770 <.text+0x500>
  402817:	eb d6                	jmp    4027ef <.text+0x57f>
  402819:	8d b4 26 00 00 00 00 	lea    0x0(%esi,%eiz,1),%esi
  402820:	55                   	push   %ebp
  402821:	89 e5                	mov    %esp,%ebp
  402823:	57                   	push   %edi
  402824:	56                   	push   %esi
  402825:	53                   	push   %ebx
  402826:	89 c3                	mov    %eax,%ebx
  402828:	83 ec 6c             	sub    $0x6c,%esp
  40282b:	89 55 cc             	mov    %edx,-0x34(%ebp)
  40282e:	89 4d a0             	mov    %ecx,-0x60(%ebp)
  402831:	89 04 24             	mov    %eax,(%esp)
  402834:	e8 d7 65 00 00       	call   408e10 <_strlen>
  402839:	8d 50 01             	lea    0x1(%eax),%edx
  40283c:	83 c0 10             	add    $0x10,%eax
  40283f:	c1 e8 04             	shr    $0x4,%eax
  402842:	c1 e0 04             	shl    $0x4,%eax
  402845:	e8 b6 f9 ff ff       	call   402200 <___chkstk_ms>
  40284a:	29 c4                	sub    %eax,%esp
  40284c:	8d 44 24 0c          	lea    0xc(%esp),%eax
  402850:	89 54 24 08          	mov    %edx,0x8(%esp)
  402854:	89 5c 24 04          	mov    %ebx,0x4(%esp)
  402858:	89 04 24             	mov    %eax,(%esp)
  40285b:	e8 e0 65 00 00       	call   408e40 <_memcpy>
  402860:	89 04 24             	mov    %eax,(%esp)
  402863:	e8 18 07 00 00       	call   402f80 <___mingw_dirname>
  402868:	89 45 bc             	mov    %eax,-0x44(%ebp)
  40286b:	8d 45 d8             	lea    -0x28(%ebp),%eax
  40286e:	c7 45 e4 00 00 00 00 	movl   $0x0,-0x1c(%ebp)
  402875:	e8 56 fc ff ff       	call   4024d0 <.text+0x260>
  40287a:	85 c0                	test   %eax,%eax
  40287c:	74 12                	je     402890 <.text+0x620>
  40287e:	8d 65 f4             	lea    -0xc(%ebp),%esp
  402881:	5b                   	pop    %ebx
  402882:	5e                   	pop    %esi
  402883:	5f                   	pop    %edi
  402884:	5d                   	pop    %ebp
  402885:	c3                   	ret    
  402886:	8d 76 00             	lea    0x0(%esi),%esi
  402889:	8d bc 27 00 00 00 00 	lea    0x0(%edi,%eiz,1),%edi
  402890:	8b 7d cc             	mov    -0x34(%ebp),%edi
  402893:	8b 75 bc             	mov    -0x44(%ebp),%esi
  402896:	89 fa                	mov    %edi,%edx
  402898:	89 f0                	mov    %esi,%eax
  40289a:	e8 d1 f9 ff ff       	call   402270 <.text>
  40289f:	85 c0                	test   %eax,%eax
  4028a1:	74 5f                	je     402902 <.text+0x692>
  4028a3:	8d 45 d8             	lea    -0x28(%ebp),%eax
  4028a6:	89 fa                	mov    %edi,%edx
  4028a8:	80 ce 80             	or     $0x80,%dh
  4028ab:	89 04 24             	mov    %eax,(%esp)
  4028ae:	8b 4d a0             	mov    -0x60(%ebp),%ecx
  4028b1:	89 f0                	mov    %esi,%eax
  4028b3:	e8 68 ff ff ff       	call   402820 <.text+0x5b0>
  4028b8:	85 c0                	test   %eax,%eax
  4028ba:	75 c2                	jne    40287e <.text+0x60e>
  4028bc:	0f b6 43 01          	movzbl 0x1(%ebx),%eax
  4028c0:	3c 2f                	cmp    $0x2f,%al
  4028c2:	0f 84 b8 00 00 00    	je     402980 <.text+0x710>
  4028c8:	3c 5c                	cmp    $0x5c,%al
  4028ca:	0f 84 b0 00 00 00    	je     402980 <.text+0x710>
  4028d0:	8b 75 bc             	mov    -0x44(%ebp),%esi
  4028d3:	bf 1c b1 40 00       	mov    $0x40b11c,%edi
  4028d8:	b9 02 00 00 00       	mov    $0x2,%ecx
  4028dd:	f3 a6                	repz cmpsb %es:(%edi),%ds:(%esi)
  4028df:	0f 85 9b 00 00 00    	jne    402980 <.text+0x710>
  4028e5:	f6 45 cc 10          	testb  $0x10,-0x34(%ebp)
  4028e9:	0f 85 89 04 00 00    	jne    402d78 <.text+0xb08>
  4028ef:	89 5d c4             	mov    %ebx,-0x3c(%ebp)
  4028f2:	c6 45 9f 5c          	movb   $0x5c,-0x61(%ebp)
  4028f6:	c7 45 bc 00 00 00 00 	movl   $0x0,-0x44(%ebp)
  4028fd:	e9 0e 01 00 00       	jmp    402a10 <.text+0x7a0>
  402902:	8b 45 bc             	mov    -0x44(%ebp),%eax
  402905:	89 e6                	mov    %esp,%esi
  402907:	89 04 24             	mov    %eax,(%esp)
  40290a:	e8 01 65 00 00       	call   408e10 <_strlen>
  40290f:	83 c0 10             	add    $0x10,%eax
  402912:	c1 e8 04             	shr    $0x4,%eax
  402915:	c1 e0 04             	shl    $0x4,%eax
  402918:	e8 e3 f8 ff ff       	call   402200 <___chkstk_ms>
  40291d:	8b 55 bc             	mov    -0x44(%ebp),%edx
  402920:	29 c4                	sub    %eax,%esp
  402922:	8d 7c 24 0c          	lea    0xc(%esp),%edi
  402926:	89 f9                	mov    %edi,%ecx
  402928:	eb 13                	jmp    40293d <.text+0x6cd>
  40292a:	8d b6 00 00 00 00    	lea    0x0(%esi),%esi
  402930:	83 c1 01             	add    $0x1,%ecx
  402933:	83 c2 01             	add    $0x1,%edx
  402936:	84 c0                	test   %al,%al
  402938:	88 41 ff             	mov    %al,-0x1(%ecx)
  40293b:	74 1b                	je     402958 <.text+0x6e8>
  40293d:	0f b6 02             	movzbl (%edx),%eax
  402940:	3c 7f                	cmp    $0x7f,%al
  402942:	75 ec                	jne    402930 <.text+0x6c0>
  402944:	0f b6 42 01          	movzbl 0x1(%edx),%eax
  402948:	83 c2 01             	add    $0x1,%edx
  40294b:	83 c1 01             	add    $0x1,%ecx
  40294e:	83 c2 01             	add    $0x1,%edx
  402951:	84 c0                	test   %al,%al
  402953:	88 41 ff             	mov    %al,-0x1(%ecx)
  402956:	75 e5                	jne    40293d <.text+0x6cd>
  402958:	89 3c 24             	mov    %edi,(%esp)
  40295b:	e8 a8 68 00 00       	call   409208 <_strdup>
  402960:	89 c1                	mov    %eax,%ecx
  402962:	89 f4                	mov    %esi,%esp
  402964:	b8 01 00 00 00       	mov    $0x1,%eax
  402969:	85 c9                	test   %ecx,%ecx
  40296b:	0f 84 0d ff ff ff    	je     40287e <.text+0x60e>
  402971:	8d 55 d8             	lea    -0x28(%ebp),%edx
  402974:	89 c8                	mov    %ecx,%eax
  402976:	e8 f5 fd ff ff       	call   402770 <.text+0x500>
  40297b:	e9 38 ff ff ff       	jmp    4028b8 <.text+0x648>
  402980:	8b 45 bc             	mov    -0x44(%ebp),%eax
  402983:	89 04 24             	mov    %eax,(%esp)
  402986:	e8 85 64 00 00       	call   408e10 <_strlen>
  40298b:	01 d8                	add    %ebx,%eax
  40298d:	39 c3                	cmp    %eax,%ebx
  40298f:	0f 83 87 04 00 00    	jae    402e1c <.text+0xbac>
  402995:	0f b6 10             	movzbl (%eax),%edx
  402998:	80 fa 5c             	cmp    $0x5c,%dl
  40299b:	0f 84 70 04 00 00    	je     402e11 <.text+0xba1>
  4029a1:	80 fa 2f             	cmp    $0x2f,%dl
  4029a4:	75 22                	jne    4029c8 <.text+0x758>
  4029a6:	e9 66 04 00 00       	jmp    402e11 <.text+0xba1>
  4029ab:	90                   	nop
  4029ac:	8d 74 26 00          	lea    0x0(%esi,%eiz,1),%esi
  4029b0:	0f b6 50 ff          	movzbl -0x1(%eax),%edx
  4029b4:	89 c8                	mov    %ecx,%eax
  4029b6:	80 fa 2f             	cmp    $0x2f,%dl
  4029b9:	0f 84 7f 03 00 00    	je     402d3e <.text+0xace>
  4029bf:	80 fa 5c             	cmp    $0x5c,%dl
  4029c2:	0f 84 76 03 00 00    	je     402d3e <.text+0xace>
  4029c8:	8d 48 ff             	lea    -0x1(%eax),%ecx
  4029cb:	39 cb                	cmp    %ecx,%ebx
  4029cd:	75 e1                	jne    4029b0 <.text+0x740>
  4029cf:	0f b6 40 ff          	movzbl -0x1(%eax),%eax
  4029d3:	89 4d c4             	mov    %ecx,-0x3c(%ebp)
  4029d6:	88 45 9f             	mov    %al,-0x61(%ebp)
  4029d9:	0f b6 45 9f          	movzbl -0x61(%ebp),%eax
  4029dd:	3c 5c                	cmp    $0x5c,%al
  4029df:	74 08                	je     4029e9 <.text+0x779>
  4029e1:	3c 2f                	cmp    $0x2f,%al
  4029e3:	0f 85 f3 03 00 00    	jne    402ddc <.text+0xb6c>
  4029e9:	0f b6 75 9f          	movzbl -0x61(%ebp),%esi
  4029ed:	8b 55 c4             	mov    -0x3c(%ebp),%edx
  4029f0:	eb 02                	jmp    4029f4 <.text+0x784>
  4029f2:	89 c6                	mov    %eax,%esi
  4029f4:	83 c2 01             	add    $0x1,%edx
  4029f7:	0f b6 02             	movzbl (%edx),%eax
  4029fa:	3c 2f                	cmp    $0x2f,%al
  4029fc:	0f 94 c3             	sete   %bl
  4029ff:	3c 5c                	cmp    $0x5c,%al
  402a01:	0f 94 c1             	sete   %cl
  402a04:	08 cb                	or     %cl,%bl
  402a06:	75 ea                	jne    4029f2 <.text+0x782>
  402a08:	89 f0                	mov    %esi,%eax
  402a0a:	89 55 c4             	mov    %edx,-0x3c(%ebp)
  402a0d:	88 45 9f             	mov    %al,-0x61(%ebp)
  402a10:	8b 45 e0             	mov    -0x20(%ebp),%eax
  402a13:	89 45 d0             	mov    %eax,-0x30(%ebp)
  402a16:	8b 00                	mov    (%eax),%eax
  402a18:	85 c0                	test   %eax,%eax
  402a1a:	0f 84 ad 03 00 00    	je     402dcd <.text+0xb5d>
  402a20:	8b 5d cc             	mov    -0x34(%ebp),%ebx
  402a23:	c7 45 c8 02 00 00 00 	movl   $0x2,-0x38(%ebp)
  402a2a:	89 df                	mov    %ebx,%edi
  402a2c:	83 e7 04             	and    $0x4,%edi
  402a2f:	89 7d 98             	mov    %edi,-0x68(%ebp)
  402a32:	89 df                	mov    %ebx,%edi
  402a34:	81 e7 00 80 00 00    	and    $0x8000,%edi
  402a3a:	89 7d d4             	mov    %edi,-0x2c(%ebp)
  402a3d:	8d 76 00             	lea    0x0(%esi),%esi
  402a40:	83 7d c8 01          	cmpl   $0x1,-0x38(%ebp)
  402a44:	0f 84 f0 01 00 00    	je     402c3a <.text+0x9ca>
  402a4a:	89 04 24             	mov    %eax,(%esp)
  402a4d:	e8 9e 0a 00 00       	call   4034f0 <___mingw_opendir>
  402a52:	85 c0                	test   %eax,%eax
  402a54:	89 c7                	mov    %eax,%edi
  402a56:	0f 84 94 02 00 00    	je     402cf0 <.text+0xa80>
  402a5c:	8b 45 bc             	mov    -0x44(%ebp),%eax
  402a5f:	85 c0                	test   %eax,%eax
  402a61:	0f 84 c4 02 00 00    	je     402d2b <.text+0xabb>
  402a67:	8b 45 d0             	mov    -0x30(%ebp),%eax
  402a6a:	8b 00                	mov    (%eax),%eax
  402a6c:	89 04 24             	mov    %eax,(%esp)
  402a6f:	e8 9c 63 00 00       	call   408e10 <_strlen>
  402a74:	89 45 b8             	mov    %eax,-0x48(%ebp)
  402a77:	8b 45 cc             	mov    -0x34(%ebp),%eax
  402a7a:	c7 45 c0 00 00 00 00 	movl   $0x0,-0x40(%ebp)
  402a81:	83 e0 40             	and    $0x40,%eax
  402a84:	89 45 a4             	mov    %eax,-0x5c(%ebp)
  402a87:	89 f6                	mov    %esi,%esi
  402a89:	8d bc 27 00 00 00 00 	lea    0x0(%edi,%eiz,1),%edi
  402a90:	89 3c 24             	mov    %edi,(%esp)
  402a93:	e8 18 0c 00 00       	call   4036b0 <___mingw_readdir>
  402a98:	85 c0                	test   %eax,%eax
  402a9a:	89 c6                	mov    %eax,%esi
  402a9c:	0f 84 7e 01 00 00    	je     402c20 <.text+0x9b0>
  402aa2:	8b 45 d4             	mov    -0x2c(%ebp),%eax
  402aa5:	85 c0                	test   %eax,%eax
  402aa7:	74 06                	je     402aaf <.text+0x83f>
  402aa9:	83 7e 08 10          	cmpl   $0x10,0x8(%esi)
  402aad:	75 e1                	jne    402a90 <.text+0x820>
  402aaf:	8d 5e 0c             	lea    0xc(%esi),%ebx
  402ab2:	8b 4d cc             	mov    -0x34(%ebp),%ecx
  402ab5:	8b 45 c4             	mov    -0x3c(%ebp),%eax
  402ab8:	89 da                	mov    %ebx,%edx
  402aba:	e8 81 fa ff ff       	call   402540 <.text+0x2d0>
  402abf:	85 c0                	test   %eax,%eax
  402ac1:	75 cd                	jne    402a90 <.text+0x820>
  402ac3:	0f b7 56 06          	movzwl 0x6(%esi),%edx
  402ac7:	8b 4d b8             	mov    -0x48(%ebp),%ecx
  402aca:	89 65 b4             	mov    %esp,-0x4c(%ebp)
  402acd:	8d 44 11 11          	lea    0x11(%ecx,%edx,1),%eax
  402ad1:	89 55 b0             	mov    %edx,-0x50(%ebp)
  402ad4:	c1 e8 04             	shr    $0x4,%eax
  402ad7:	c1 e0 04             	shl    $0x4,%eax
  402ada:	e8 21 f7 ff ff       	call   402200 <___chkstk_ms>
  402adf:	29 c4                	sub    %eax,%esp
  402ae1:	31 c0                	xor    %eax,%eax
  402ae3:	85 c9                	test   %ecx,%ecx
  402ae5:	8d 54 24 0c          	lea    0xc(%esp),%edx
  402ae9:	89 55 ac             	mov    %edx,-0x54(%ebp)
  402aec:	0f 85 8e 01 00 00    	jne    402c80 <.text+0xa10>
  402af2:	8b 4d b0             	mov    -0x50(%ebp),%ecx
  402af5:	01 d0                	add    %edx,%eax
  402af7:	89 55 a8             	mov    %edx,-0x58(%ebp)
  402afa:	89 5c 24 04          	mov    %ebx,0x4(%esp)
  402afe:	89 04 24             	mov    %eax,(%esp)
  402b01:	89 e3                	mov    %esp,%ebx
  402b03:	83 c1 01             	add    $0x1,%ecx
  402b06:	89 4c 24 08          	mov    %ecx,0x8(%esp)
  402b0a:	e8 31 63 00 00       	call   408e40 <_memcpy>
  402b0f:	8b 55 a8             	mov    -0x58(%ebp),%edx
  402b12:	89 14 24             	mov    %edx,(%esp)
  402b15:	e8 f6 62 00 00       	call   408e10 <_strlen>
  402b1a:	83 c0 10             	add    $0x10,%eax
  402b1d:	c1 e8 04             	shr    $0x4,%eax
  402b20:	c1 e0 04             	shl    $0x4,%eax
  402b23:	e8 d8 f6 ff ff       	call   402200 <___chkstk_ms>
  402b28:	8b 75 ac             	mov    -0x54(%ebp),%esi
  402b2b:	29 c4                	sub    %eax,%esp
  402b2d:	8d 4c 24 0c          	lea    0xc(%esp),%ecx
  402b31:	89 ca                	mov    %ecx,%edx
  402b33:	eb 0d                	jmp    402b42 <.text+0x8d2>
  402b35:	83 c2 01             	add    $0x1,%edx
  402b38:	83 c6 01             	add    $0x1,%esi
  402b3b:	84 c0                	test   %al,%al
  402b3d:	88 42 ff             	mov    %al,-0x1(%edx)
  402b40:	74 1b                	je     402b5d <.text+0x8ed>
  402b42:	0f b6 06             	movzbl (%esi),%eax
  402b45:	3c 7f                	cmp    $0x7f,%al
  402b47:	75 ec                	jne    402b35 <.text+0x8c5>
  402b49:	0f b6 46 01          	movzbl 0x1(%esi),%eax
  402b4d:	83 c6 01             	add    $0x1,%esi
  402b50:	83 c2 01             	add    $0x1,%edx
  402b53:	83 c6 01             	add    $0x1,%esi
  402b56:	84 c0                	test   %al,%al
  402b58:	88 42 ff             	mov    %al,-0x1(%edx)
  402b5b:	75 e5                	jne    402b42 <.text+0x8d2>
  402b5d:	89 0c 24             	mov    %ecx,(%esp)
  402b60:	e8 a3 66 00 00       	call   409208 <_strdup>
  402b65:	85 c0                	test   %eax,%eax
  402b67:	89 c6                	mov    %eax,%esi
  402b69:	89 dc                	mov    %ebx,%esp
  402b6b:	0f 84 4f 01 00 00    	je     402cc0 <.text+0xa50>
  402b71:	8b 4d c8             	mov    -0x38(%ebp),%ecx
  402b74:	8b 5d a4             	mov    -0x5c(%ebp),%ebx
  402b77:	83 f9 02             	cmp    $0x2,%ecx
  402b7a:	0f 94 c0             	sete   %al
  402b7d:	0f b6 c0             	movzbl %al,%eax
  402b80:	83 e8 01             	sub    $0x1,%eax
  402b83:	21 c1                	and    %eax,%ecx
  402b85:	85 db                	test   %ebx,%ebx
  402b87:	89 4d c8             	mov    %ecx,-0x38(%ebp)
  402b8a:	0f 85 e0 00 00 00    	jne    402c70 <.text+0xa00>
  402b90:	8b 45 c0             	mov    -0x40(%ebp),%eax
  402b93:	85 c0                	test   %eax,%eax
  402b95:	0f 84 ae 01 00 00    	je     402d49 <.text+0xad9>
  402b9b:	8b 5d cc             	mov    -0x34(%ebp),%ebx
  402b9e:	89 7d b0             	mov    %edi,-0x50(%ebp)
  402ba1:	81 e3 00 40 00 00    	and    $0x4000,%ebx
  402ba7:	89 d9                	mov    %ebx,%ecx
  402ba9:	89 c3                	mov    %eax,%ebx
  402bab:	89 cf                	mov    %ecx,%edi
  402bad:	eb 15                	jmp    402bc4 <.text+0x954>
  402baf:	90                   	nop
  402bb0:	e8 63 62 00 00       	call   408e18 <_strcoll>
  402bb5:	85 c0                	test   %eax,%eax
  402bb7:	8b 13                	mov    (%ebx),%edx
  402bb9:	8b 4b 04             	mov    0x4(%ebx),%ecx
  402bbc:	7e 22                	jle    402be0 <.text+0x970>
  402bbe:	85 c9                	test   %ecx,%ecx
  402bc0:	74 24                	je     402be6 <.text+0x976>
  402bc2:	89 cb                	mov    %ecx,%ebx
  402bc4:	8b 43 08             	mov    0x8(%ebx),%eax
  402bc7:	85 ff                	test   %edi,%edi
  402bc9:	89 34 24             	mov    %esi,(%esp)
  402bcc:	89 44 24 04          	mov    %eax,0x4(%esp)
  402bd0:	75 de                	jne    402bb0 <.text+0x940>
  402bd2:	e8 29 66 00 00       	call   409200 <_stricoll>
  402bd7:	85 c0                	test   %eax,%eax
  402bd9:	8b 13                	mov    (%ebx),%edx
  402bdb:	8b 4b 04             	mov    0x4(%ebx),%ecx
  402bde:	7f de                	jg     402bbe <.text+0x94e>
  402be0:	89 d1                	mov    %edx,%ecx
  402be2:	85 c9                	test   %ecx,%ecx
  402be4:	75 dc                	jne    402bc2 <.text+0x952>
  402be6:	8b 7d b0             	mov    -0x50(%ebp),%edi
  402be9:	89 45 b0             	mov    %eax,-0x50(%ebp)
  402bec:	c7 04 24 0c 00 00 00 	movl   $0xc,(%esp)
  402bf3:	e8 58 62 00 00       	call   408e50 <_malloc>
  402bf8:	85 c0                	test   %eax,%eax
  402bfa:	8b 55 b0             	mov    -0x50(%ebp),%edx
  402bfd:	74 78                	je     402c77 <.text+0xa07>
  402bff:	85 d2                	test   %edx,%edx
  402c01:	89 70 08             	mov    %esi,0x8(%eax)
  402c04:	c7 40 04 00 00 00 00 	movl   $0x0,0x4(%eax)
  402c0b:	c7 00 00 00 00 00    	movl   $0x0,(%eax)
  402c11:	0f 8e 20 01 00 00    	jle    402d37 <.text+0xac7>
  402c17:	89 43 04             	mov    %eax,0x4(%ebx)
  402c1a:	eb 5b                	jmp    402c77 <.text+0xa07>
  402c1c:	8d 74 26 00          	lea    0x0(%esi,%eiz,1),%esi
  402c20:	89 3c 24             	mov    %edi,(%esp)
  402c23:	e8 d8 0a 00 00       	call   403700 <___mingw_closedir>
  402c28:	8b 55 c0             	mov    -0x40(%ebp),%edx
  402c2b:	85 d2                	test   %edx,%edx
  402c2d:	74 0b                	je     402c3a <.text+0x9ca>
  402c2f:	8b 55 08             	mov    0x8(%ebp),%edx
  402c32:	8b 45 c0             	mov    -0x40(%ebp),%eax
  402c35:	e8 96 fb ff ff       	call   4027d0 <.text+0x560>
  402c3a:	83 45 d0 04          	addl   $0x4,-0x30(%ebp)
  402c3e:	8b 7d d0             	mov    -0x30(%ebp),%edi
  402c41:	8b 47 fc             	mov    -0x4(%edi),%eax
  402c44:	89 04 24             	mov    %eax,(%esp)
  402c47:	e8 24 62 00 00       	call   408e70 <_free>
  402c4c:	8b 07                	mov    (%edi),%eax
  402c4e:	85 c0                	test   %eax,%eax
  402c50:	0f 85 ea fd ff ff    	jne    402a40 <.text+0x7d0>
  402c56:	8b 45 e0             	mov    -0x20(%ebp),%eax
  402c59:	89 04 24             	mov    %eax,(%esp)
  402c5c:	e8 0f 62 00 00       	call   408e70 <_free>
  402c61:	8b 45 c8             	mov    -0x38(%ebp),%eax
  402c64:	8d 65 f4             	lea    -0xc(%ebp),%esp
  402c67:	5b                   	pop    %ebx
  402c68:	5e                   	pop    %esi
  402c69:	5f                   	pop    %edi
  402c6a:	5d                   	pop    %ebp
  402c6b:	c3                   	ret    
  402c6c:	8d 74 26 00          	lea    0x0(%esi,%eiz,1),%esi
  402c70:	8b 4d 08             	mov    0x8(%ebp),%ecx
  402c73:	85 c9                	test   %ecx,%ecx
  402c75:	75 69                	jne    402ce0 <.text+0xa70>
  402c77:	8b 65 b4             	mov    -0x4c(%ebp),%esp
  402c7a:	e9 11 fe ff ff       	jmp    402a90 <.text+0x820>
  402c7f:	90                   	nop
  402c80:	8b 45 d0             	mov    -0x30(%ebp),%eax
  402c83:	89 ce                	mov    %ecx,%esi
  402c85:	8b 00                	mov    (%eax),%eax
  402c87:	89 14 24             	mov    %edx,(%esp)
  402c8a:	89 4c 24 08          	mov    %ecx,0x8(%esp)
  402c8e:	89 44 24 04          	mov    %eax,0x4(%esp)
  402c92:	89 55 a8             	mov    %edx,-0x58(%ebp)
  402c95:	e8 a6 61 00 00       	call   408e40 <_memcpy>
  402c9a:	0f b6 44 34 0b       	movzbl 0xb(%esp,%esi,1),%eax
  402c9f:	8b 55 a8             	mov    -0x58(%ebp),%edx
  402ca2:	3c 2f                	cmp    $0x2f,%al
  402ca4:	74 2a                	je     402cd0 <.text+0xa60>
  402ca6:	3c 5c                	cmp    $0x5c,%al
  402ca8:	74 26                	je     402cd0 <.text+0xa60>
  402caa:	0f b6 4d 9f          	movzbl -0x61(%ebp),%ecx
  402cae:	8d 46 01             	lea    0x1(%esi),%eax
  402cb1:	88 0c 32             	mov    %cl,(%edx,%esi,1)
  402cb4:	e9 39 fe ff ff       	jmp    402af2 <.text+0x882>
  402cb9:	8d b4 26 00 00 00 00 	lea    0x0(%esi,%eiz,1),%esi
  402cc0:	c7 45 c8 03 00 00 00 	movl   $0x3,-0x38(%ebp)
  402cc7:	eb ae                	jmp    402c77 <.text+0xa07>
  402cc9:	8d b4 26 00 00 00 00 	lea    0x0(%esi,%eiz,1),%esi
  402cd0:	8b 45 b8             	mov    -0x48(%ebp),%eax
  402cd3:	e9 1a fe ff ff       	jmp    402af2 <.text+0x882>
  402cd8:	90                   	nop
  402cd9:	8d b4 26 00 00 00 00 	lea    0x0(%esi,%eiz,1),%esi
  402ce0:	8b 55 08             	mov    0x8(%ebp),%edx
  402ce3:	89 f0                	mov    %esi,%eax
  402ce5:	e8 86 fa ff ff       	call   402770 <.text+0x500>
  402cea:	eb 8b                	jmp    402c77 <.text+0xa07>
  402cec:	8d 74 26 00          	lea    0x0(%esi,%eiz,1),%esi
  402cf0:	8b 45 98             	mov    -0x68(%ebp),%eax
  402cf3:	85 c0                	test   %eax,%eax
  402cf5:	75 28                	jne    402d1f <.text+0xaaf>
  402cf7:	8b 7d a0             	mov    -0x60(%ebp),%edi
  402cfa:	85 ff                	test   %edi,%edi
  402cfc:	0f 84 38 ff ff ff    	je     402c3a <.text+0x9ca>
  402d02:	e8 a9 61 00 00       	call   408eb0 <__errno>
  402d07:	8b 00                	mov    (%eax),%eax
  402d09:	89 44 24 04          	mov    %eax,0x4(%esp)
  402d0d:	8b 45 d0             	mov    -0x30(%ebp),%eax
  402d10:	8b 00                	mov    (%eax),%eax
  402d12:	89 04 24             	mov    %eax,(%esp)
  402d15:	ff d7                	call   *%edi
  402d17:	85 c0                	test   %eax,%eax
  402d19:	0f 84 1b ff ff ff    	je     402c3a <.text+0x9ca>
  402d1f:	c7 45 c8 01 00 00 00 	movl   $0x1,-0x38(%ebp)
  402d26:	e9 0f ff ff ff       	jmp    402c3a <.text+0x9ca>
  402d2b:	c7 45 b8 00 00 00 00 	movl   $0x0,-0x48(%ebp)
  402d32:	e9 40 fd ff ff       	jmp    402a77 <.text+0x807>
  402d37:	89 03                	mov    %eax,(%ebx)
  402d39:	e9 39 ff ff ff       	jmp    402c77 <.text+0xa07>
  402d3e:	89 4d c4             	mov    %ecx,-0x3c(%ebp)
  402d41:	88 55 9f             	mov    %dl,-0x61(%ebp)
  402d44:	e9 90 fc ff ff       	jmp    4029d9 <.text+0x769>
  402d49:	c7 04 24 0c 00 00 00 	movl   $0xc,(%esp)
  402d50:	e8 fb 60 00 00       	call   408e50 <_malloc>
  402d55:	85 c0                	test   %eax,%eax
  402d57:	89 45 c0             	mov    %eax,-0x40(%ebp)
  402d5a:	0f 84 17 ff ff ff    	je     402c77 <.text+0xa07>
  402d60:	8b 45 c0             	mov    -0x40(%ebp),%eax
  402d63:	89 70 08             	mov    %esi,0x8(%eax)
  402d66:	c7 40 04 00 00 00 00 	movl   $0x0,0x4(%eax)
  402d6d:	c7 00 00 00 00 00    	movl   $0x0,(%eax)
  402d73:	e9 ff fe ff ff       	jmp    402c77 <.text+0xa07>
  402d78:	8b 55 cc             	mov    -0x34(%ebp),%edx
  402d7b:	89 d8                	mov    %ebx,%eax
  402d7d:	e8 ee f4 ff ff       	call   402270 <.text>
  402d82:	85 c0                	test   %eax,%eax
  402d84:	0f 85 65 fb ff ff    	jne    4028ef <.text+0x67f>
  402d8a:	89 1c 24             	mov    %ebx,(%esp)
  402d8d:	89 e6                	mov    %esp,%esi
  402d8f:	e8 7c 60 00 00       	call   408e10 <_strlen>
  402d94:	83 c0 10             	add    $0x10,%eax
  402d97:	c1 e8 04             	shr    $0x4,%eax
  402d9a:	c1 e0 04             	shl    $0x4,%eax
  402d9d:	e8 5e f4 ff ff       	call   402200 <___chkstk_ms>
  402da2:	29 c4                	sub    %eax,%esp
  402da4:	8d 4c 24 0c          	lea    0xc(%esp),%ecx
  402da8:	89 ca                	mov    %ecx,%edx
  402daa:	eb 11                	jmp    402dbd <.text+0xb4d>
  402dac:	8d 74 26 00          	lea    0x0(%esi,%eiz,1),%esi
  402db0:	83 c2 01             	add    $0x1,%edx
  402db3:	83 c3 01             	add    $0x1,%ebx
  402db6:	84 c0                	test   %al,%al
  402db8:	88 42 ff             	mov    %al,-0x1(%edx)
  402dbb:	74 28                	je     402de5 <.text+0xb75>
  402dbd:	0f b6 03             	movzbl (%ebx),%eax
  402dc0:	3c 7f                	cmp    $0x7f,%al
  402dc2:	75 ec                	jne    402db0 <.text+0xb40>
  402dc4:	0f b6 43 01          	movzbl 0x1(%ebx),%eax
  402dc8:	83 c3 01             	add    $0x1,%ebx
  402dcb:	eb e3                	jmp    402db0 <.text+0xb40>
  402dcd:	8b 45 d0             	mov    -0x30(%ebp),%eax
  402dd0:	c7 45 c8 02 00 00 00 	movl   $0x2,-0x38(%ebp)
  402dd7:	e9 7d fe ff ff       	jmp    402c59 <.text+0x9e9>
  402ddc:	c6 45 9f 5c          	movb   $0x5c,-0x61(%ebp)
  402de0:	e9 2b fc ff ff       	jmp    402a10 <.text+0x7a0>
  402de5:	89 0c 24             	mov    %ecx,(%esp)
  402de8:	e8 1b 64 00 00       	call   409208 <_strdup>
  402ded:	85 c0                	test   %eax,%eax
  402def:	89 f4                	mov    %esi,%esp
  402df1:	74 0f                	je     402e02 <.text+0xb92>
  402df3:	8b 55 08             	mov    0x8(%ebp),%edx
  402df6:	85 d2                	test   %edx,%edx
  402df8:	74 08                	je     402e02 <.text+0xb92>
  402dfa:	8b 55 08             	mov    0x8(%ebp),%edx
  402dfd:	e8 6e f9 ff ff       	call   402770 <.text+0x500>
  402e02:	8b 45 e0             	mov    -0x20(%ebp),%eax
  402e05:	c7 45 c8 00 00 00 00 	movl   $0x0,-0x38(%ebp)
  402e0c:	e9 48 fe ff ff       	jmp    402c59 <.text+0x9e9>
  402e11:	88 55 9f             	mov    %dl,-0x61(%ebp)
  402e14:	89 45 c4             	mov    %eax,-0x3c(%ebp)
  402e17:	e9 bd fb ff ff       	jmp    4029d9 <.text+0x769>
  402e1c:	0f b6 08             	movzbl (%eax),%ecx
  402e1f:	89 45 c4             	mov    %eax,-0x3c(%ebp)
  402e22:	88 4d 9f             	mov    %cl,-0x61(%ebp)
  402e25:	e9 af fb ff ff       	jmp    4029d9 <.text+0x769>
  402e2a:	8d b6 00 00 00 00    	lea    0x0(%esi),%esi

00402e30 <___mingw_glob>:
  402e30:	55                   	push   %ebp
  402e31:	89 e5                	mov    %esp,%ebp
  402e33:	57                   	push   %edi
  402e34:	56                   	push   %esi
  402e35:	53                   	push   %ebx
  402e36:	83 ec 2c             	sub    $0x2c,%esp
  402e39:	8b 75 14             	mov    0x14(%ebp),%esi
  402e3c:	8b 5d 08             	mov    0x8(%ebp),%ebx
  402e3f:	8b 7d 0c             	mov    0xc(%ebp),%edi
  402e42:	85 f6                	test   %esi,%esi
  402e44:	74 08                	je     402e4e <___mingw_glob+0x1e>
  402e46:	f7 c7 02 00 00 00    	test   $0x2,%edi
  402e4c:	74 35                	je     402e83 <___mingw_glob+0x53>
  402e4e:	81 3e 1e b1 40 00    	cmpl   $0x40b11e,(%esi)
  402e54:	74 0d                	je     402e63 <___mingw_glob+0x33>
  402e56:	89 f0                	mov    %esi,%eax
  402e58:	e8 73 f6 ff ff       	call   4024d0 <.text+0x260>
  402e5d:	c7 06 1e b1 40 00    	movl   $0x40b11e,(%esi)
  402e63:	89 34 24             	mov    %esi,(%esp)
  402e66:	8b 4d 10             	mov    0x10(%ebp),%ecx
  402e69:	89 fa                	mov    %edi,%edx
  402e6b:	89 d8                	mov    %ebx,%eax
  402e6d:	e8 ae f9 ff ff       	call   402820 <.text+0x5b0>
  402e72:	83 f8 02             	cmp    $0x2,%eax
  402e75:	89 c1                	mov    %eax,%ecx
  402e77:	74 17                	je     402e90 <___mingw_glob+0x60>
  402e79:	8d 65 f4             	lea    -0xc(%ebp),%esp
  402e7c:	89 c8                	mov    %ecx,%eax
  402e7e:	5b                   	pop    %ebx
  402e7f:	5e                   	pop    %esi
  402e80:	5f                   	pop    %edi
  402e81:	5d                   	pop    %ebp
  402e82:	c3                   	ret    
  402e83:	c7 46 0c 00 00 00 00 	movl   $0x0,0xc(%esi)
  402e8a:	eb c2                	jmp    402e4e <___mingw_glob+0x1e>
  402e8c:	8d 74 26 00          	lea    0x0(%esi,%eiz,1),%esi
  402e90:	83 e7 10             	and    $0x10,%edi
  402e93:	74 e4                	je     402e79 <___mingw_glob+0x49>
  402e95:	89 45 e0             	mov    %eax,-0x20(%ebp)
  402e98:	89 65 e4             	mov    %esp,-0x1c(%ebp)
  402e9b:	89 1c 24             	mov    %ebx,(%esp)
  402e9e:	e8 6d 5f 00 00       	call   408e10 <_strlen>
  402ea3:	83 c0 10             	add    $0x10,%eax
  402ea6:	c1 e8 04             	shr    $0x4,%eax
  402ea9:	c1 e0 04             	shl    $0x4,%eax
  402eac:	e8 4f f3 ff ff       	call   402200 <___chkstk_ms>
  402eb1:	8b 4d e0             	mov    -0x20(%ebp),%ecx
  402eb4:	29 c4                	sub    %eax,%esp
  402eb6:	8d 7c 24 04          	lea    0x4(%esp),%edi
  402eba:	89 fa                	mov    %edi,%edx
  402ebc:	eb 0f                	jmp    402ecd <___mingw_glob+0x9d>
  402ebe:	66 90                	xchg   %ax,%ax
  402ec0:	83 c2 01             	add    $0x1,%edx
  402ec3:	83 c3 01             	add    $0x1,%ebx
  402ec6:	84 c0                	test   %al,%al
  402ec8:	88 42 ff             	mov    %al,-0x1(%edx)
  402ecb:	74 1b                	je     402ee8 <___mingw_glob+0xb8>
  402ecd:	0f b6 03             	movzbl (%ebx),%eax
  402ed0:	3c 7f                	cmp    $0x7f,%al
  402ed2:	75 ec                	jne    402ec0 <___mingw_glob+0x90>
  402ed4:	0f b6 43 01          	movzbl 0x1(%ebx),%eax
  402ed8:	83 c3 01             	add    $0x1,%ebx
  402edb:	83 c2 01             	add    $0x1,%edx
  402ede:	83 c3 01             	add    $0x1,%ebx
  402ee1:	84 c0                	test   %al,%al
  402ee3:	88 42 ff             	mov    %al,-0x1(%edx)
  402ee6:	75 e5                	jne    402ecd <___mingw_glob+0x9d>
  402ee8:	89 4d e0             	mov    %ecx,-0x20(%ebp)
  402eeb:	89 3c 24             	mov    %edi,(%esp)
  402eee:	e8 15 63 00 00       	call   409208 <_strdup>
  402ef3:	85 c0                	test   %eax,%eax
  402ef5:	8b 65 e4             	mov    -0x1c(%ebp),%esp
  402ef8:	8b 4d e0             	mov    -0x20(%ebp),%ecx
  402efb:	0f 84 78 ff ff ff    	je     402e79 <___mingw_glob+0x49>
  402f01:	89 f2                	mov    %esi,%edx
  402f03:	89 4d e4             	mov    %ecx,-0x1c(%ebp)
  402f06:	e8 65 f8 ff ff       	call   402770 <.text+0x500>
  402f0b:	8b 4d e4             	mov    -0x1c(%ebp),%ecx
  402f0e:	e9 66 ff ff ff       	jmp    402e79 <___mingw_glob+0x49>
  402f13:	8d b6 00 00 00 00    	lea    0x0(%esi),%esi
  402f19:	8d bc 27 00 00 00 00 	lea    0x0(%edi,%eiz,1),%edi

00402f20 <___mingw_globfree>:
  402f20:	57                   	push   %edi
  402f21:	56                   	push   %esi
  402f22:	53                   	push   %ebx
  402f23:	83 ec 10             	sub    $0x10,%esp
  402f26:	8b 74 24 20          	mov    0x20(%esp),%esi
  402f2a:	81 3e 1e b1 40 00    	cmpl   $0x40b11e,(%esi)
  402f30:	74 0e                	je     402f40 <___mingw_globfree+0x20>
  402f32:	83 c4 10             	add    $0x10,%esp
  402f35:	5b                   	pop    %ebx
  402f36:	5e                   	pop    %esi
  402f37:	5f                   	pop    %edi
  402f38:	c3                   	ret    
  402f39:	8d b4 26 00 00 00 00 	lea    0x0(%esi,%eiz,1),%esi
  402f40:	8b 46 04             	mov    0x4(%esi),%eax
  402f43:	8b 56 0c             	mov    0xc(%esi),%edx
  402f46:	85 c0                	test   %eax,%eax
  402f48:	8d 78 ff             	lea    -0x1(%eax),%edi
  402f4b:	8d 1c 95 00 00 00 00 	lea    0x0(,%edx,4),%ebx
  402f52:	7e 19                	jle    402f6d <___mingw_globfree+0x4d>
  402f54:	8b 46 08             	mov    0x8(%esi),%eax
  402f57:	83 ef 01             	sub    $0x1,%edi
  402f5a:	8b 04 18             	mov    (%eax,%ebx,1),%eax
  402f5d:	83 c3 04             	add    $0x4,%ebx
  402f60:	89 04 24             	mov    %eax,(%esp)
  402f63:	e8 08 5f 00 00       	call   408e70 <_free>
  402f68:	83 ff ff             	cmp    $0xffffffff,%edi
  402f6b:	75 e7                	jne    402f54 <___mingw_globfree+0x34>
  402f6d:	8b 46 08             	mov    0x8(%esi),%eax
  402f70:	89 44 24 20          	mov    %eax,0x20(%esp)
  402f74:	83 c4 10             	add    $0x10,%esp
  402f77:	5b                   	pop    %ebx
  402f78:	5e                   	pop    %esi
  402f79:	5f                   	pop    %edi
  402f7a:	e9 f1 5e 00 00       	jmp    408e70 <_free>
  402f7f:	90                   	nop

00402f80 <___mingw_dirname>:
  402f80:	55                   	push   %ebp
  402f81:	89 e5                	mov    %esp,%ebp
  402f83:	57                   	push   %edi
  402f84:	56                   	push   %esi
  402f85:	53                   	push   %ebx
  402f86:	83 ec 2c             	sub    $0x2c,%esp
  402f89:	c7 44 24 04 00 00 00 	movl   $0x0,0x4(%esp)
  402f90:	00 
  402f91:	c7 04 24 02 00 00 00 	movl   $0x2,(%esp)
  402f98:	e8 93 5e 00 00       	call   408e30 <_setlocale>
  402f9d:	85 c0                	test   %eax,%eax
  402f9f:	89 c3                	mov    %eax,%ebx
  402fa1:	74 0a                	je     402fad <___mingw_dirname+0x2d>
  402fa3:	89 04 24             	mov    %eax,(%esp)
  402fa6:	e8 5d 62 00 00       	call   409208 <_strdup>
  402fab:	89 c3                	mov    %eax,%ebx
  402fad:	c7 44 24 04 30 b1 40 	movl   $0x40b130,0x4(%esp)
  402fb4:	00 
  402fb5:	c7 04 24 02 00 00 00 	movl   $0x2,(%esp)
  402fbc:	e8 6f 5e 00 00       	call   408e30 <_setlocale>
  402fc1:	8b 75 08             	mov    0x8(%ebp),%esi
  402fc4:	85 f6                	test   %esi,%esi
  402fc6:	74 08                	je     402fd0 <___mingw_dirname+0x50>
  402fc8:	8b 45 08             	mov    0x8(%ebp),%eax
  402fcb:	80 38 00             	cmpb   $0x0,(%eax)
  402fce:	75 70                	jne    403040 <___mingw_dirname+0xc0>
  402fd0:	c7 44 24 08 00 00 00 	movl   $0x0,0x8(%esp)
  402fd7:	00 
  402fd8:	c7 44 24 04 32 b1 40 	movl   $0x40b132,0x4(%esp)
  402fdf:	00 
  402fe0:	c7 04 24 00 00 00 00 	movl   $0x0,(%esp)
  402fe7:	e8 04 5e 00 00       	call   408df0 <_wcstombs>
  402fec:	8d 70 01             	lea    0x1(%eax),%esi
  402fef:	89 74 24 04          	mov    %esi,0x4(%esp)
  402ff3:	a1 68 e0 40 00       	mov    0x40e068,%eax
  402ff8:	89 04 24             	mov    %eax,(%esp)
  402ffb:	e8 38 5e 00 00       	call   408e38 <_realloc>
  403000:	a3 68 e0 40 00       	mov    %eax,0x40e068
  403005:	89 74 24 08          	mov    %esi,0x8(%esp)
  403009:	c7 44 24 04 32 b1 40 	movl   $0x40b132,0x4(%esp)
  403010:	00 
  403011:	89 04 24             	mov    %eax,(%esp)
  403014:	e8 d7 5d 00 00       	call   408df0 <_wcstombs>
  403019:	89 5c 24 04          	mov    %ebx,0x4(%esp)
  40301d:	c7 04 24 02 00 00 00 	movl   $0x2,(%esp)
  403024:	e8 07 5e 00 00       	call   408e30 <_setlocale>
  403029:	89 1c 24             	mov    %ebx,(%esp)
  40302c:	e8 3f 5e 00 00       	call   408e70 <_free>
  403031:	a1 68 e0 40 00       	mov    0x40e068,%eax
  403036:	8d 65 f4             	lea    -0xc(%ebp),%esp
  403039:	5b                   	pop    %ebx
  40303a:	5e                   	pop    %esi
  40303b:	5f                   	pop    %edi
  40303c:	5d                   	pop    %ebp
  40303d:	c3                   	ret    
  40303e:	66 90                	xchg   %ax,%ax
  403040:	89 65 dc             	mov    %esp,-0x24(%ebp)
  403043:	c7 44 24 08 00 00 00 	movl   $0x0,0x8(%esp)
  40304a:	00 
  40304b:	8b 45 08             	mov    0x8(%ebp),%eax
  40304e:	c7 04 24 00 00 00 00 	movl   $0x0,(%esp)
  403055:	89 44 24 04          	mov    %eax,0x4(%esp)
  403059:	e8 ea 5d 00 00       	call   408e48 <_mbstowcs>
  40305e:	89 c2                	mov    %eax,%edx
  403060:	8d 44 00 12          	lea    0x12(%eax,%eax,1),%eax
  403064:	c1 e8 04             	shr    $0x4,%eax
  403067:	c1 e0 04             	shl    $0x4,%eax
  40306a:	e8 91 f1 ff ff       	call   402200 <___chkstk_ms>
  40306f:	29 c4                	sub    %eax,%esp
  403071:	89 54 24 08          	mov    %edx,0x8(%esp)
  403075:	8b 45 08             	mov    0x8(%ebp),%eax
  403078:	8d 74 24 0c          	lea    0xc(%esp),%esi
  40307c:	89 34 24             	mov    %esi,(%esp)
  40307f:	89 44 24 04          	mov    %eax,0x4(%esp)
  403083:	e8 c0 5d 00 00       	call   408e48 <_mbstowcs>
  403088:	31 c9                	xor    %ecx,%ecx
  40308a:	89 45 d8             	mov    %eax,-0x28(%ebp)
  40308d:	83 f8 01             	cmp    $0x1,%eax
  403090:	66 89 0c 46          	mov    %cx,(%esi,%eax,2)
  403094:	0f b7 06             	movzwl (%esi),%eax
  403097:	89 75 e4             	mov    %esi,-0x1c(%ebp)
  40309a:	66 89 45 e2          	mov    %ax,-0x1e(%ebp)
  40309e:	0f 86 b8 00 00 00    	jbe    40315c <___mingw_dirname+0x1dc>
  4030a4:	66 83 f8 2f          	cmp    $0x2f,%ax
  4030a8:	0f 84 ae 01 00 00    	je     40325c <___mingw_dirname+0x2dc>
  4030ae:	66 83 f8 5c          	cmp    $0x5c,%ax
  4030b2:	0f 84 a4 01 00 00    	je     40325c <___mingw_dirname+0x2dc>
  4030b8:	66 83 7e 02 3a       	cmpw   $0x3a,0x2(%esi)
  4030bd:	0f 84 48 02 00 00    	je     40330b <___mingw_dirname+0x38b>
  4030c3:	66 83 7d e2 00       	cmpw   $0x0,-0x1e(%ebp)
  4030c8:	0f 84 97 00 00 00    	je     403165 <___mingw_dirname+0x1e5>
  4030ce:	8b 4d e4             	mov    -0x1c(%ebp),%ecx
  4030d1:	0f b7 55 e2          	movzwl -0x1e(%ebp),%edx
  4030d5:	89 cf                	mov    %ecx,%edi
  4030d7:	eb 1b                	jmp    4030f4 <___mingw_dirname+0x174>
  4030d9:	8d b4 26 00 00 00 00 	lea    0x0(%esi,%eiz,1),%esi
  4030e0:	66 83 fa 5c          	cmp    $0x5c,%dx
  4030e4:	89 c8                	mov    %ecx,%eax
  4030e6:	74 12                	je     4030fa <___mingw_dirname+0x17a>
  4030e8:	0f b7 50 02          	movzwl 0x2(%eax),%edx
  4030ec:	8d 48 02             	lea    0x2(%eax),%ecx
  4030ef:	66 85 d2             	test   %dx,%dx
  4030f2:	74 41                	je     403135 <___mingw_dirname+0x1b5>
  4030f4:	66 83 fa 2f          	cmp    $0x2f,%dx
  4030f8:	75 e6                	jne    4030e0 <___mingw_dirname+0x160>
  4030fa:	0f b7 11             	movzwl (%ecx),%edx
  4030fd:	89 c8                	mov    %ecx,%eax
  4030ff:	66 83 fa 5c          	cmp    $0x5c,%dx
  403103:	74 0b                	je     403110 <___mingw_dirname+0x190>
  403105:	66 83 fa 2f          	cmp    $0x2f,%dx
  403109:	75 17                	jne    403122 <___mingw_dirname+0x1a2>
  40310b:	90                   	nop
  40310c:	8d 74 26 00          	lea    0x0(%esi,%eiz,1),%esi
  403110:	83 c0 02             	add    $0x2,%eax
  403113:	0f b7 10             	movzwl (%eax),%edx
  403116:	66 83 fa 2f          	cmp    $0x2f,%dx
  40311a:	74 f4                	je     403110 <___mingw_dirname+0x190>
  40311c:	66 83 fa 5c          	cmp    $0x5c,%dx
  403120:	74 ee                	je     403110 <___mingw_dirname+0x190>
  403122:	66 85 d2             	test   %dx,%dx
  403125:	74 0e                	je     403135 <___mingw_dirname+0x1b5>
  403127:	0f b7 50 02          	movzwl 0x2(%eax),%edx
  40312b:	89 c7                	mov    %eax,%edi
  40312d:	8d 48 02             	lea    0x2(%eax),%ecx
  403130:	66 85 d2             	test   %dx,%dx
  403133:	75 bf                	jne    4030f4 <___mingw_dirname+0x174>
  403135:	39 7d e4             	cmp    %edi,-0x1c(%ebp)
  403138:	0f 83 42 01 00 00    	jae    403280 <___mingw_dirname+0x300>
  40313e:	8b 4d e4             	mov    -0x1c(%ebp),%ecx
  403141:	8d 47 fe             	lea    -0x2(%edi),%eax
  403144:	39 c8                	cmp    %ecx,%eax
  403146:	76 25                	jbe    40316d <___mingw_dirname+0x1ed>
  403148:	0f b7 57 fe          	movzwl -0x2(%edi),%edx
  40314c:	66 83 fa 2f          	cmp    $0x2f,%dx
  403150:	74 06                	je     403158 <___mingw_dirname+0x1d8>
  403152:	66 83 fa 5c          	cmp    $0x5c,%dx
  403156:	75 15                	jne    40316d <___mingw_dirname+0x1ed>
  403158:	89 c7                	mov    %eax,%edi
  40315a:	eb e5                	jmp    403141 <___mingw_dirname+0x1c1>
  40315c:	66 85 c0             	test   %ax,%ax
  40315f:	0f 85 69 ff ff ff    	jne    4030ce <___mingw_dirname+0x14e>
  403165:	8b 65 dc             	mov    -0x24(%ebp),%esp
  403168:	e9 63 fe ff ff       	jmp    402fd0 <___mingw_dirname+0x50>
  40316d:	3b 45 e4             	cmp    -0x1c(%ebp),%eax
  403170:	0f 84 a8 01 00 00    	je     40331e <___mingw_dirname+0x39e>
  403176:	31 d2                	xor    %edx,%edx
  403178:	66 89 50 02          	mov    %dx,0x2(%eax)
  40317c:	0f b7 16             	movzwl (%esi),%edx
  40317f:	89 f0                	mov    %esi,%eax
  403181:	66 83 fa 5c          	cmp    $0x5c,%dx
  403185:	74 0a                	je     403191 <___mingw_dirname+0x211>
  403187:	66 83 fa 2f          	cmp    $0x2f,%dx
  40318b:	0f 85 60 01 00 00    	jne    4032f1 <___mingw_dirname+0x371>
  403191:	83 c0 02             	add    $0x2,%eax
  403194:	0f b7 08             	movzwl (%eax),%ecx
  403197:	66 83 f9 2f          	cmp    $0x2f,%cx
  40319b:	74 f4                	je     403191 <___mingw_dirname+0x211>
  40319d:	66 83 f9 5c          	cmp    $0x5c,%cx
  4031a1:	74 ee                	je     403191 <___mingw_dirname+0x211>
  4031a3:	89 c1                	mov    %eax,%ecx
  4031a5:	29 f1                	sub    %esi,%ecx
  4031a7:	83 f9 05             	cmp    $0x5,%ecx
  4031aa:	0f 8e 41 01 00 00    	jle    4032f1 <___mingw_dirname+0x371>
  4031b0:	89 f0                	mov    %esi,%eax
  4031b2:	89 c1                	mov    %eax,%ecx
  4031b4:	66 85 d2             	test   %dx,%dx
  4031b7:	74 21                	je     4031da <___mingw_dirname+0x25a>
  4031b9:	83 c1 02             	add    $0x2,%ecx
  4031bc:	66 83 fa 2f          	cmp    $0x2f,%dx
  4031c0:	66 89 51 fe          	mov    %dx,-0x2(%ecx)
  4031c4:	74 6c                	je     403232 <___mingw_dirname+0x2b2>
  4031c6:	66 83 38 5c          	cmpw   $0x5c,(%eax)
  4031ca:	8d 78 02             	lea    0x2(%eax),%edi
  4031cd:	74 61                	je     403230 <___mingw_dirname+0x2b0>
  4031cf:	0f b7 50 02          	movzwl 0x2(%eax),%edx
  4031d3:	89 f8                	mov    %edi,%eax
  4031d5:	66 85 d2             	test   %dx,%dx
  4031d8:	75 df                	jne    4031b9 <___mingw_dirname+0x239>
  4031da:	8b 45 d8             	mov    -0x28(%ebp),%eax
  4031dd:	31 ff                	xor    %edi,%edi
  4031df:	66 89 39             	mov    %di,(%ecx)
  4031e2:	89 74 24 04          	mov    %esi,0x4(%esp)
  4031e6:	89 44 24 08          	mov    %eax,0x8(%esp)
  4031ea:	8b 45 08             	mov    0x8(%ebp),%eax
  4031ed:	89 04 24             	mov    %eax,(%esp)
  4031f0:	e8 fb 5b 00 00       	call   408df0 <_wcstombs>
  4031f5:	83 f8 ff             	cmp    $0xffffffff,%eax
  4031f8:	74 07                	je     403201 <___mingw_dirname+0x281>
  4031fa:	8b 7d 08             	mov    0x8(%ebp),%edi
  4031fd:	c6 04 07 00          	movb   $0x0,(%edi,%eax,1)
  403201:	89 5c 24 04          	mov    %ebx,0x4(%esp)
  403205:	c7 04 24 02 00 00 00 	movl   $0x2,(%esp)
  40320c:	e8 1f 5c 00 00       	call   408e30 <_setlocale>
  403211:	89 1c 24             	mov    %ebx,(%esp)
  403214:	e8 57 5c 00 00       	call   408e70 <_free>
  403219:	8b 45 08             	mov    0x8(%ebp),%eax
  40321c:	8b 65 dc             	mov    -0x24(%ebp),%esp
  40321f:	8d 65 f4             	lea    -0xc(%ebp),%esp
  403222:	5b                   	pop    %ebx
  403223:	5e                   	pop    %esi
  403224:	5f                   	pop    %edi
  403225:	5d                   	pop    %ebp
  403226:	c3                   	ret    
  403227:	89 f6                	mov    %esi,%esi
  403229:	8d bc 27 00 00 00 00 	lea    0x0(%edi,%eiz,1),%edi
  403230:	89 f8                	mov    %edi,%eax
  403232:	0f b7 10             	movzwl (%eax),%edx
  403235:	66 83 fa 5c          	cmp    $0x5c,%dx
  403239:	74 0a                	je     403245 <___mingw_dirname+0x2c5>
  40323b:	66 83 fa 2f          	cmp    $0x2f,%dx
  40323f:	0f 85 6f ff ff ff    	jne    4031b4 <___mingw_dirname+0x234>
  403245:	83 c0 02             	add    $0x2,%eax
  403248:	0f b7 10             	movzwl (%eax),%edx
  40324b:	66 83 fa 2f          	cmp    $0x2f,%dx
  40324f:	74 f4                	je     403245 <___mingw_dirname+0x2c5>
  403251:	66 83 fa 5c          	cmp    $0x5c,%dx
  403255:	74 ee                	je     403245 <___mingw_dirname+0x2c5>
  403257:	e9 58 ff ff ff       	jmp    4031b4 <___mingw_dirname+0x234>
  40325c:	0f b7 45 e2          	movzwl -0x1e(%ebp),%eax
  403260:	66 3b 46 02          	cmp    0x2(%esi),%ax
  403264:	0f 85 59 fe ff ff    	jne    4030c3 <___mingw_dirname+0x143>
  40326a:	66 83 7e 04 00       	cmpw   $0x0,0x4(%esi)
  40326f:	0f 85 4e fe ff ff    	jne    4030c3 <___mingw_dirname+0x143>
  403275:	eb 8a                	jmp    403201 <___mingw_dirname+0x281>
  403277:	89 f6                	mov    %esi,%esi
  403279:	8d bc 27 00 00 00 00 	lea    0x0(%edi,%eiz,1),%edi
  403280:	0f b7 45 e2          	movzwl -0x1e(%ebp),%eax
  403284:	66 83 f8 2f          	cmp    $0x2f,%ax
  403288:	74 79                	je     403303 <___mingw_dirname+0x383>
  40328a:	66 83 f8 5c          	cmp    $0x5c,%ax
  40328e:	74 73                	je     403303 <___mingw_dirname+0x383>
  403290:	8b 7d e4             	mov    -0x1c(%ebp),%edi
  403293:	b9 2e 00 00 00       	mov    $0x2e,%ecx
  403298:	89 f8                	mov    %edi,%eax
  40329a:	66 89 0f             	mov    %cx,(%edi)
  40329d:	83 c0 02             	add    $0x2,%eax
  4032a0:	31 d2                	xor    %edx,%edx
  4032a2:	66 89 10             	mov    %dx,(%eax)
  4032a5:	c7 44 24 08 00 00 00 	movl   $0x0,0x8(%esp)
  4032ac:	00 
  4032ad:	89 74 24 04          	mov    %esi,0x4(%esp)
  4032b1:	c7 04 24 00 00 00 00 	movl   $0x0,(%esp)
  4032b8:	e8 33 5b 00 00       	call   408df0 <_wcstombs>
  4032bd:	8d 78 01             	lea    0x1(%eax),%edi
  4032c0:	89 7c 24 04          	mov    %edi,0x4(%esp)
  4032c4:	a1 68 e0 40 00       	mov    0x40e068,%eax
  4032c9:	89 04 24             	mov    %eax,(%esp)
  4032cc:	e8 67 5b 00 00       	call   408e38 <_realloc>
  4032d1:	89 45 08             	mov    %eax,0x8(%ebp)
  4032d4:	a3 68 e0 40 00       	mov    %eax,0x40e068
  4032d9:	89 7c 24 08          	mov    %edi,0x8(%esp)
  4032dd:	89 74 24 04          	mov    %esi,0x4(%esp)
  4032e1:	8b 45 08             	mov    0x8(%ebp),%eax
  4032e4:	89 04 24             	mov    %eax,(%esp)
  4032e7:	e8 04 5b 00 00       	call   408df0 <_wcstombs>
  4032ec:	e9 10 ff ff ff       	jmp    403201 <___mingw_dirname+0x281>
  4032f1:	66 39 56 02          	cmp    %dx,0x2(%esi)
  4032f5:	0f 85 b5 fe ff ff    	jne    4031b0 <___mingw_dirname+0x230>
  4032fb:	0f b7 10             	movzwl (%eax),%edx
  4032fe:	e9 af fe ff ff       	jmp    4031b2 <___mingw_dirname+0x232>
  403303:	8b 45 e4             	mov    -0x1c(%ebp),%eax
  403306:	83 c0 02             	add    $0x2,%eax
  403309:	eb 95                	jmp    4032a0 <___mingw_dirname+0x320>
  40330b:	8d 46 04             	lea    0x4(%esi),%eax
  40330e:	89 45 e4             	mov    %eax,-0x1c(%ebp)
  403311:	0f b7 46 04          	movzwl 0x4(%esi),%eax
  403315:	66 89 45 e2          	mov    %ax,-0x1e(%ebp)
  403319:	e9 a5 fd ff ff       	jmp    4030c3 <___mingw_dirname+0x143>
  40331e:	0f b7 4d e2          	movzwl -0x1e(%ebp),%ecx
  403322:	66 83 f9 2f          	cmp    $0x2f,%cx
  403326:	74 0a                	je     403332 <___mingw_dirname+0x3b2>
  403328:	66 83 f9 5c          	cmp    $0x5c,%cx
  40332c:	0f 85 44 fe ff ff    	jne    403176 <___mingw_dirname+0x1f6>
  403332:	8b 4d e4             	mov    -0x1c(%ebp),%ecx
  403335:	0f b7 55 e2          	movzwl -0x1e(%ebp),%edx
  403339:	66 39 51 02          	cmp    %dx,0x2(%ecx)
  40333d:	89 c8                	mov    %ecx,%eax
  40333f:	0f 85 31 fe ff ff    	jne    403176 <___mingw_dirname+0x1f6>
  403345:	0f b7 51 04          	movzwl 0x4(%ecx),%edx
  403349:	66 83 fa 2f          	cmp    $0x2f,%dx
  40334d:	74 0c                	je     40335b <___mingw_dirname+0x3db>
  40334f:	66 83 fa 5c          	cmp    $0x5c,%dx
  403353:	89 f8                	mov    %edi,%eax
  403355:	0f 85 1b fe ff ff    	jne    403176 <___mingw_dirname+0x1f6>
  40335b:	8b 45 e4             	mov    -0x1c(%ebp),%eax
  40335e:	e9 13 fe ff ff       	jmp    403176 <___mingw_dirname+0x1f6>
  403363:	90                   	nop
  403364:	90                   	nop
  403365:	90                   	nop
  403366:	90                   	nop
  403367:	90                   	nop
  403368:	90                   	nop
  403369:	90                   	nop
  40336a:	90                   	nop
  40336b:	90                   	nop
  40336c:	90                   	nop
  40336d:	90                   	nop
  40336e:	90                   	nop
  40336f:	90                   	nop

00403370 <.text>:
  403370:	56                   	push   %esi
  403371:	53                   	push   %ebx
  403372:	89 d6                	mov    %edx,%esi
  403374:	81 ec 54 01 00 00    	sub    $0x154,%esp
  40337a:	8d 54 24 10          	lea    0x10(%esp),%edx
  40337e:	89 04 24             	mov    %eax,(%esp)
  403381:	89 54 24 04          	mov    %edx,0x4(%esp)
  403385:	e8 d6 5b 00 00       	call   408f60 <_FindNextFileA@8>
  40338a:	83 ec 08             	sub    $0x8,%esp
  40338d:	85 c0                	test   %eax,%eax
  40338f:	75 22                	jne    4033b3 <.text+0x43>
  403391:	e8 b2 5b 00 00       	call   408f48 <_GetLastError@0>
  403396:	31 db                	xor    %ebx,%ebx
  403398:	83 f8 12             	cmp    $0x12,%eax
  40339b:	74 0b                	je     4033a8 <.text+0x38>
  40339d:	e8 0e 5b 00 00       	call   408eb0 <__errno>
  4033a2:	c7 00 02 00 00 00    	movl   $0x2,(%eax)
  4033a8:	81 c4 54 01 00 00    	add    $0x154,%esp
  4033ae:	89 d8                	mov    %ebx,%eax
  4033b0:	5b                   	pop    %ebx
  4033b1:	5e                   	pop    %esi
  4033b2:	c3                   	ret    
  4033b3:	89 c3                	mov    %eax,%ebx
  4033b5:	8d 44 24 3c          	lea    0x3c(%esp),%eax
  4033b9:	c7 44 24 08 38 b1 40 	movl   $0x40b138,0x8(%esp)
  4033c0:	00 
  4033c1:	c7 44 24 04 04 01 00 	movl   $0x104,0x4(%esp)
  4033c8:	00 
  4033c9:	89 44 24 0c          	mov    %eax,0xc(%esp)
  4033cd:	8d 46 0c             	lea    0xc(%esi),%eax
  4033d0:	89 04 24             	mov    %eax,(%esp)
  4033d3:	e8 d8 2c 00 00       	call   4060b0 <___mingw_snprintf>
  4033d8:	66 89 46 06          	mov    %ax,0x6(%esi)
  4033dc:	8b 44 24 10          	mov    0x10(%esp),%eax
  4033e0:	24 58                	and    $0x58,%al
  4033e2:	83 f8 10             	cmp    $0x10,%eax
  4033e5:	76 19                	jbe    403400 <.text+0x90>
  4033e7:	c7 46 08 18 00 00 00 	movl   $0x18,0x8(%esi)
  4033ee:	81 c4 54 01 00 00    	add    $0x154,%esp
  4033f4:	89 d8                	mov    %ebx,%eax
  4033f6:	5b                   	pop    %ebx
  4033f7:	5e                   	pop    %esi
  4033f8:	c3                   	ret    
  4033f9:	8d b4 26 00 00 00 00 	lea    0x0(%esi,%eiz,1),%esi
  403400:	89 46 08             	mov    %eax,0x8(%esi)
  403403:	81 c4 54 01 00 00    	add    $0x154,%esp
  403409:	89 d8                	mov    %ebx,%eax
  40340b:	5b                   	pop    %ebx
  40340c:	5e                   	pop    %esi
  40340d:	c3                   	ret    
  40340e:	66 90                	xchg   %ax,%ax
  403410:	56                   	push   %esi
  403411:	53                   	push   %ebx
  403412:	89 d3                	mov    %edx,%ebx
  403414:	81 ec 54 01 00 00    	sub    $0x154,%esp
  40341a:	8d 54 24 10          	lea    0x10(%esp),%edx
  40341e:	89 04 24             	mov    %eax,(%esp)
  403421:	89 54 24 04          	mov    %edx,0x4(%esp)
  403425:	e8 3e 5b 00 00       	call   408f68 <_FindFirstFileA@8>
  40342a:	83 ec 08             	sub    $0x8,%esp
  40342d:	83 f8 ff             	cmp    $0xffffffff,%eax
  403430:	89 c6                	mov    %eax,%esi
  403432:	74 5c                	je     403490 <.text+0x120>
  403434:	8d 44 24 3c          	lea    0x3c(%esp),%eax
  403438:	c7 44 24 08 38 b1 40 	movl   $0x40b138,0x8(%esp)
  40343f:	00 
  403440:	c7 44 24 04 04 01 00 	movl   $0x104,0x4(%esp)
  403447:	00 
  403448:	89 44 24 0c          	mov    %eax,0xc(%esp)
  40344c:	8d 43 0c             	lea    0xc(%ebx),%eax
  40344f:	89 04 24             	mov    %eax,(%esp)
  403452:	e8 59 2c 00 00       	call   4060b0 <___mingw_snprintf>
  403457:	66 89 43 06          	mov    %ax,0x6(%ebx)
  40345b:	8b 44 24 10          	mov    0x10(%esp),%eax
  40345f:	24 58                	and    $0x58,%al
  403461:	83 f8 10             	cmp    $0x10,%eax
  403464:	76 1a                	jbe    403480 <.text+0x110>
  403466:	c7 43 08 18 00 00 00 	movl   $0x18,0x8(%ebx)
  40346d:	81 c4 54 01 00 00    	add    $0x154,%esp
  403473:	89 f0                	mov    %esi,%eax
  403475:	5b                   	pop    %ebx
  403476:	5e                   	pop    %esi
  403477:	c3                   	ret    
  403478:	90                   	nop
  403479:	8d b4 26 00 00 00 00 	lea    0x0(%esi,%eiz,1),%esi
  403480:	89 43 08             	mov    %eax,0x8(%ebx)
  403483:	81 c4 54 01 00 00    	add    $0x154,%esp
  403489:	89 f0                	mov    %esi,%eax
  40348b:	5b                   	pop    %ebx
  40348c:	5e                   	pop    %esi
  40348d:	c3                   	ret    
  40348e:	66 90                	xchg   %ax,%ax
  403490:	e8 1b 5a 00 00       	call   408eb0 <__errno>
  403495:	89 c3                	mov    %eax,%ebx
  403497:	e8 ac 5a 00 00       	call   408f48 <_GetLastError@0>
  40349c:	83 f8 03             	cmp    $0x3,%eax
  40349f:	89 03                	mov    %eax,(%ebx)
  4034a1:	74 2d                	je     4034d0 <.text+0x160>
  4034a3:	e8 08 5a 00 00       	call   408eb0 <__errno>
  4034a8:	81 38 0b 01 00 00    	cmpl   $0x10b,(%eax)
  4034ae:	74 30                	je     4034e0 <.text+0x170>
  4034b0:	e8 fb 59 00 00       	call   408eb0 <__errno>
  4034b5:	83 38 02             	cmpl   $0x2,(%eax)
  4034b8:	74 b3                	je     40346d <.text+0xfd>
  4034ba:	e8 f1 59 00 00       	call   408eb0 <__errno>
  4034bf:	c7 00 16 00 00 00    	movl   $0x16,(%eax)
  4034c5:	eb a6                	jmp    40346d <.text+0xfd>
  4034c7:	89 f6                	mov    %esi,%esi
  4034c9:	8d bc 27 00 00 00 00 	lea    0x0(%edi,%eiz,1),%edi
  4034d0:	e8 db 59 00 00       	call   408eb0 <__errno>
  4034d5:	c7 00 02 00 00 00    	movl   $0x2,(%eax)
  4034db:	eb 90                	jmp    40346d <.text+0xfd>
  4034dd:	8d 76 00             	lea    0x0(%esi),%esi
  4034e0:	e8 cb 59 00 00       	call   408eb0 <__errno>
  4034e5:	c7 00 14 00 00 00    	movl   $0x14,(%eax)
  4034eb:	eb 80                	jmp    40346d <.text+0xfd>
  4034ed:	8d 76 00             	lea    0x0(%esi),%esi

004034f0 <___mingw_opendir>:
  4034f0:	55                   	push   %ebp
  4034f1:	57                   	push   %edi
  4034f2:	56                   	push   %esi
  4034f3:	53                   	push   %ebx
  4034f4:	81 ec 2c 01 00 00    	sub    $0x12c,%esp
  4034fa:	8b 84 24 40 01 00 00 	mov    0x140(%esp),%eax
  403501:	85 c0                	test   %eax,%eax
  403503:	0f 84 85 01 00 00    	je     40368e <___mingw_opendir+0x19e>
  403509:	80 38 00             	cmpb   $0x0,(%eax)
  40350c:	0f 84 5e 01 00 00    	je     403670 <___mingw_opendir+0x180>
  403512:	8d 7c 24 1c          	lea    0x1c(%esp),%edi
  403516:	c7 44 24 08 04 01 00 	movl   $0x104,0x8(%esp)
  40351d:	00 
  40351e:	89 44 24 04          	mov    %eax,0x4(%esp)
  403522:	89 3c 24             	mov    %edi,(%esp)
  403525:	e8 7e 59 00 00       	call   408ea8 <__fullpath>
  40352a:	80 7c 24 1c 00       	cmpb   $0x0,0x1c(%esp)
  40352f:	89 f8                	mov    %edi,%eax
  403531:	74 4d                	je     403580 <___mingw_opendir+0x90>
  403533:	8b 08                	mov    (%eax),%ecx
  403535:	83 c0 04             	add    $0x4,%eax
  403538:	8d 91 ff fe fe fe    	lea    -0x1010101(%ecx),%edx
  40353e:	f7 d1                	not    %ecx
  403540:	21 ca                	and    %ecx,%edx
  403542:	81 e2 80 80 80 80    	and    $0x80808080,%edx
  403548:	74 e9                	je     403533 <___mingw_opendir+0x43>
  40354a:	f7 c2 80 80 00 00    	test   $0x8080,%edx
  403550:	0f 84 0a 01 00 00    	je     403660 <___mingw_opendir+0x170>
  403556:	89 d1                	mov    %edx,%ecx
  403558:	00 d1                	add    %dl,%cl
  40355a:	83 d8 03             	sbb    $0x3,%eax
  40355d:	29 f8                	sub    %edi,%eax
  40355f:	0f b6 54 04 1b       	movzbl 0x1b(%esp,%eax,1),%edx
  403564:	80 fa 2f             	cmp    $0x2f,%dl
  403567:	74 43                	je     4035ac <___mingw_opendir+0xbc>
  403569:	80 fa 5c             	cmp    $0x5c,%dl
  40356c:	74 3e                	je     4035ac <___mingw_opendir+0xbc>
  40356e:	b9 5c 00 00 00       	mov    $0x5c,%ecx
  403573:	66 89 0c 07          	mov    %cx,(%edi,%eax,1)
  403577:	83 c0 01             	add    $0x1,%eax
  40357a:	eb 30                	jmp    4035ac <___mingw_opendir+0xbc>
  40357c:	8d 74 26 00          	lea    0x0(%esi,%eiz,1),%esi
  403580:	8b 08                	mov    (%eax),%ecx
  403582:	83 c0 04             	add    $0x4,%eax
  403585:	8d 91 ff fe fe fe    	lea    -0x1010101(%ecx),%edx
  40358b:	f7 d1                	not    %ecx
  40358d:	21 ca                	and    %ecx,%edx
  40358f:	81 e2 80 80 80 80    	and    $0x80808080,%edx
  403595:	74 e9                	je     403580 <___mingw_opendir+0x90>
  403597:	f7 c2 80 80 00 00    	test   $0x8080,%edx
  40359d:	0f 84 ad 00 00 00    	je     403650 <___mingw_opendir+0x160>
  4035a3:	89 d1                	mov    %edx,%ecx
  4035a5:	00 d1                	add    %dl,%cl
  4035a7:	83 d8 03             	sbb    $0x3,%eax
  4035aa:	29 f8                	sub    %edi,%eax
  4035ac:	ba 2a 00 00 00       	mov    $0x2a,%edx
  4035b1:	89 fe                	mov    %edi,%esi
  4035b3:	66 89 14 07          	mov    %dx,(%edi,%eax,1)
  4035b7:	8b 16                	mov    (%esi),%edx
  4035b9:	83 c6 04             	add    $0x4,%esi
  4035bc:	8d 82 ff fe fe fe    	lea    -0x1010101(%edx),%eax
  4035c2:	f7 d2                	not    %edx
  4035c4:	21 d0                	and    %edx,%eax
  4035c6:	25 80 80 80 80       	and    $0x80808080,%eax
  4035cb:	74 ea                	je     4035b7 <___mingw_opendir+0xc7>
  4035cd:	a9 80 80 00 00       	test   $0x8080,%eax
  4035d2:	75 06                	jne    4035da <___mingw_opendir+0xea>
  4035d4:	c1 e8 10             	shr    $0x10,%eax
  4035d7:	83 c6 02             	add    $0x2,%esi
  4035da:	89 c1                	mov    %eax,%ecx
  4035dc:	00 c1                	add    %al,%cl
  4035de:	83 de 03             	sbb    $0x3,%esi
  4035e1:	29 fe                	sub    %edi,%esi
  4035e3:	8d 86 1c 01 00 00    	lea    0x11c(%esi),%eax
  4035e9:	89 04 24             	mov    %eax,(%esp)
  4035ec:	e8 5f 58 00 00       	call   408e50 <_malloc>
  4035f1:	85 c0                	test   %eax,%eax
  4035f3:	89 c3                	mov    %eax,%ebx
  4035f5:	0f 84 84 00 00 00    	je     40367f <___mingw_opendir+0x18f>
  4035fb:	8d a8 18 01 00 00    	lea    0x118(%eax),%ebp
  403601:	83 c6 01             	add    $0x1,%esi
  403604:	89 7c 24 04          	mov    %edi,0x4(%esp)
  403608:	89 74 24 08          	mov    %esi,0x8(%esp)
  40360c:	89 2c 24             	mov    %ebp,(%esp)
  40360f:	e8 2c 58 00 00       	call   408e40 <_memcpy>
  403614:	89 da                	mov    %ebx,%edx
  403616:	89 e8                	mov    %ebp,%eax
  403618:	e8 f3 fd ff ff       	call   403410 <.text+0xa0>
  40361d:	83 f8 ff             	cmp    $0xffffffff,%eax
  403620:	89 83 10 01 00 00    	mov    %eax,0x110(%ebx)
  403626:	74 75                	je     40369d <___mingw_opendir+0x1ad>
  403628:	b8 10 01 00 00       	mov    $0x110,%eax
  40362d:	c7 83 14 01 00 00 00 	movl   $0x0,0x114(%ebx)
  403634:	00 00 00 
  403637:	c7 03 00 00 00 00    	movl   $0x0,(%ebx)
  40363d:	66 89 43 04          	mov    %ax,0x4(%ebx)
  403641:	89 d8                	mov    %ebx,%eax
  403643:	81 c4 2c 01 00 00    	add    $0x12c,%esp
  403649:	5b                   	pop    %ebx
  40364a:	5e                   	pop    %esi
  40364b:	5f                   	pop    %edi
  40364c:	5d                   	pop    %ebp
  40364d:	c3                   	ret    
  40364e:	66 90                	xchg   %ax,%ax
  403650:	c1 ea 10             	shr    $0x10,%edx
  403653:	83 c0 02             	add    $0x2,%eax
  403656:	e9 48 ff ff ff       	jmp    4035a3 <___mingw_opendir+0xb3>
  40365b:	90                   	nop
  40365c:	8d 74 26 00          	lea    0x0(%esi,%eiz,1),%esi
  403660:	c1 ea 10             	shr    $0x10,%edx
  403663:	83 c0 02             	add    $0x2,%eax
  403666:	e9 eb fe ff ff       	jmp    403556 <___mingw_opendir+0x66>
  40366b:	90                   	nop
  40366c:	8d 74 26 00          	lea    0x0(%esi,%eiz,1),%esi
  403670:	e8 3b 58 00 00       	call   408eb0 <__errno>
  403675:	c7 00 02 00 00 00    	movl   $0x2,(%eax)
  40367b:	31 c0                	xor    %eax,%eax
  40367d:	eb c4                	jmp    403643 <___mingw_opendir+0x153>
  40367f:	e8 2c 58 00 00       	call   408eb0 <__errno>
  403684:	c7 00 0c 00 00 00    	movl   $0xc,(%eax)
  40368a:	31 c0                	xor    %eax,%eax
  40368c:	eb b5                	jmp    403643 <___mingw_opendir+0x153>
  40368e:	e8 1d 58 00 00       	call   408eb0 <__errno>
  403693:	c7 00 16 00 00 00    	movl   $0x16,(%eax)
  403699:	31 c0                	xor    %eax,%eax
  40369b:	eb a6                	jmp    403643 <___mingw_opendir+0x153>
  40369d:	89 1c 24             	mov    %ebx,(%esp)
  4036a0:	e8 cb 57 00 00       	call   408e70 <_free>
  4036a5:	31 c0                	xor    %eax,%eax
  4036a7:	eb 9a                	jmp    403643 <___mingw_opendir+0x153>
  4036a9:	8d b4 26 00 00 00 00 	lea    0x0(%esi,%eiz,1),%esi

004036b0 <___mingw_readdir>:
  4036b0:	53                   	push   %ebx
  4036b1:	83 ec 08             	sub    $0x8,%esp
  4036b4:	8b 5c 24 10          	mov    0x10(%esp),%ebx
  4036b8:	85 db                	test   %ebx,%ebx
  4036ba:	74 2b                	je     4036e7 <___mingw_readdir+0x37>
  4036bc:	8b 83 14 01 00 00    	mov    0x114(%ebx),%eax
  4036c2:	8d 50 01             	lea    0x1(%eax),%edx
  4036c5:	85 c0                	test   %eax,%eax
  4036c7:	89 93 14 01 00 00    	mov    %edx,0x114(%ebx)
  4036cd:	7e 11                	jle    4036e0 <___mingw_readdir+0x30>
  4036cf:	8b 83 10 01 00 00    	mov    0x110(%ebx),%eax
  4036d5:	89 da                	mov    %ebx,%edx
  4036d7:	e8 94 fc ff ff       	call   403370 <.text>
  4036dc:	85 c0                	test   %eax,%eax
  4036de:	74 02                	je     4036e2 <___mingw_readdir+0x32>
  4036e0:	89 d8                	mov    %ebx,%eax
  4036e2:	83 c4 08             	add    $0x8,%esp
  4036e5:	5b                   	pop    %ebx
  4036e6:	c3                   	ret    
  4036e7:	e8 c4 57 00 00       	call   408eb0 <__errno>
  4036ec:	c7 00 09 00 00 00    	movl   $0x9,(%eax)
  4036f2:	31 c0                	xor    %eax,%eax
  4036f4:	eb ec                	jmp    4036e2 <___mingw_readdir+0x32>
  4036f6:	8d 76 00             	lea    0x0(%esi),%esi
  4036f9:	8d bc 27 00 00 00 00 	lea    0x0(%edi,%eiz,1),%edi

00403700 <___mingw_closedir>:
  403700:	53                   	push   %ebx
  403701:	83 ec 18             	sub    $0x18,%esp
  403704:	8b 5c 24 20          	mov    0x20(%esp),%ebx
  403708:	85 db                	test   %ebx,%ebx
  40370a:	74 24                	je     403730 <___mingw_closedir+0x30>
  40370c:	8b 83 10 01 00 00    	mov    0x110(%ebx),%eax
  403712:	89 04 24             	mov    %eax,(%esp)
  403715:	e8 56 58 00 00       	call   408f70 <_FindClose@4>
  40371a:	83 ec 04             	sub    $0x4,%esp
  40371d:	85 c0                	test   %eax,%eax
  40371f:	74 0f                	je     403730 <___mingw_closedir+0x30>
  403721:	89 1c 24             	mov    %ebx,(%esp)
  403724:	e8 47 57 00 00       	call   408e70 <_free>
  403729:	31 c0                	xor    %eax,%eax
  40372b:	83 c4 18             	add    $0x18,%esp
  40372e:	5b                   	pop    %ebx
  40372f:	c3                   	ret    
  403730:	e8 7b 57 00 00       	call   408eb0 <__errno>
  403735:	c7 00 09 00 00 00    	movl   $0x9,(%eax)
  40373b:	b8 ff ff ff ff       	mov    $0xffffffff,%eax
  403740:	eb e9                	jmp    40372b <___mingw_closedir+0x2b>
  403742:	8d b4 26 00 00 00 00 	lea    0x0(%esi,%eiz,1),%esi
  403749:	8d bc 27 00 00 00 00 	lea    0x0(%edi,%eiz,1),%edi

00403750 <___mingw_rewinddir>:
  403750:	53                   	push   %ebx
  403751:	83 ec 18             	sub    $0x18,%esp
  403754:	8b 5c 24 20          	mov    0x20(%esp),%ebx
  403758:	85 db                	test   %ebx,%ebx
  40375a:	74 15                	je     403771 <___mingw_rewinddir+0x21>
  40375c:	8b 83 10 01 00 00    	mov    0x110(%ebx),%eax
  403762:	89 04 24             	mov    %eax,(%esp)
  403765:	e8 06 58 00 00       	call   408f70 <_FindClose@4>
  40376a:	83 ec 04             	sub    $0x4,%esp
  40376d:	85 c0                	test   %eax,%eax
  40376f:	75 10                	jne    403781 <___mingw_rewinddir+0x31>
  403771:	e8 3a 57 00 00       	call   408eb0 <__errno>
  403776:	c7 00 09 00 00 00    	movl   $0x9,(%eax)
  40377c:	83 c4 18             	add    $0x18,%esp
  40377f:	5b                   	pop    %ebx
  403780:	c3                   	ret    
  403781:	8d 83 18 01 00 00    	lea    0x118(%ebx),%eax
  403787:	89 da                	mov    %ebx,%edx
  403789:	e8 82 fc ff ff       	call   403410 <.text+0xa0>
  40378e:	83 f8 ff             	cmp    $0xffffffff,%eax
  403791:	89 83 10 01 00 00    	mov    %eax,0x110(%ebx)
  403797:	74 e3                	je     40377c <___mingw_rewinddir+0x2c>
  403799:	c7 83 14 01 00 00 00 	movl   $0x0,0x114(%ebx)
  4037a0:	00 00 00 
  4037a3:	83 c4 18             	add    $0x18,%esp
  4037a6:	5b                   	pop    %ebx
  4037a7:	c3                   	ret    
  4037a8:	90                   	nop
  4037a9:	8d b4 26 00 00 00 00 	lea    0x0(%esi,%eiz,1),%esi

004037b0 <___mingw_telldir>:
  4037b0:	83 ec 0c             	sub    $0xc,%esp
  4037b3:	8b 44 24 10          	mov    0x10(%esp),%eax
  4037b7:	85 c0                	test   %eax,%eax
  4037b9:	74 0a                	je     4037c5 <___mingw_telldir+0x15>
  4037bb:	8b 80 14 01 00 00    	mov    0x114(%eax),%eax
  4037c1:	83 c4 0c             	add    $0xc,%esp
  4037c4:	c3                   	ret    
  4037c5:	e8 e6 56 00 00       	call   408eb0 <__errno>
  4037ca:	c7 00 09 00 00 00    	movl   $0x9,(%eax)
  4037d0:	b8 ff ff ff ff       	mov    $0xffffffff,%eax
  4037d5:	eb ea                	jmp    4037c1 <___mingw_telldir+0x11>
  4037d7:	89 f6                	mov    %esi,%esi
  4037d9:	8d bc 27 00 00 00 00 	lea    0x0(%edi,%eiz,1),%edi

004037e0 <___mingw_seekdir>:
  4037e0:	56                   	push   %esi
  4037e1:	53                   	push   %ebx
  4037e2:	83 ec 14             	sub    $0x14,%esp
  4037e5:	8b 74 24 24          	mov    0x24(%esp),%esi
  4037e9:	8b 5c 24 20          	mov    0x20(%esp),%ebx
  4037ed:	85 f6                	test   %esi,%esi
  4037ef:	78 4f                	js     403840 <___mingw_seekdir+0x60>
  4037f1:	89 1c 24             	mov    %ebx,(%esp)
  4037f4:	e8 57 ff ff ff       	call   403750 <___mingw_rewinddir>
  4037f9:	85 f6                	test   %esi,%esi
  4037fb:	74 37                	je     403834 <___mingw_seekdir+0x54>
  4037fd:	83 bb 10 01 00 00 ff 	cmpl   $0xffffffff,0x110(%ebx)
  403804:	75 1b                	jne    403821 <___mingw_seekdir+0x41>
  403806:	eb 2c                	jmp    403834 <___mingw_seekdir+0x54>
  403808:	90                   	nop
  403809:	8d b4 26 00 00 00 00 	lea    0x0(%esi,%eiz,1),%esi
  403810:	8b 83 10 01 00 00    	mov    0x110(%ebx),%eax
  403816:	89 da                	mov    %ebx,%edx
  403818:	e8 53 fb ff ff       	call   403370 <.text>
  40381d:	85 c0                	test   %eax,%eax
  40381f:	74 13                	je     403834 <___mingw_seekdir+0x54>
  403821:	8b 83 14 01 00 00    	mov    0x114(%ebx),%eax
  403827:	83 c0 01             	add    $0x1,%eax
  40382a:	39 c6                	cmp    %eax,%esi
  40382c:	89 83 14 01 00 00    	mov    %eax,0x114(%ebx)
  403832:	7f dc                	jg     403810 <___mingw_seekdir+0x30>
  403834:	83 c4 14             	add    $0x14,%esp
  403837:	5b                   	pop    %ebx
  403838:	5e                   	pop    %esi
  403839:	c3                   	ret    
  40383a:	8d b6 00 00 00 00    	lea    0x0(%esi),%esi
  403840:	e8 6b 56 00 00       	call   408eb0 <__errno>
  403845:	c7 00 16 00 00 00    	movl   $0x16,(%eax)
  40384b:	83 c4 14             	add    $0x14,%esp
  40384e:	5b                   	pop    %ebx
  40384f:	5e                   	pop    %esi
  403850:	c3                   	ret    
  403851:	90                   	nop
  403852:	90                   	nop
  403853:	90                   	nop
  403854:	90                   	nop
  403855:	90                   	nop
  403856:	90                   	nop
  403857:	90                   	nop
  403858:	90                   	nop
  403859:	90                   	nop
  40385a:	90                   	nop
  40385b:	90                   	nop
  40385c:	90                   	nop
  40385d:	90                   	nop
  40385e:	90                   	nop
  40385f:	90                   	nop

00403860 <.text>:
  403860:	55                   	push   %ebp
  403861:	57                   	push   %edi
  403862:	56                   	push   %esi
  403863:	53                   	push   %ebx
  403864:	89 c3                	mov    %eax,%ebx
  403866:	83 ec 04             	sub    $0x4,%esp
  403869:	8b 10                	mov    (%eax),%edx
  40386b:	0f b6 0a             	movzbl (%edx),%ecx
  40386e:	8d 41 b7             	lea    -0x49(%ecx),%eax
  403871:	3c 31                	cmp    $0x31,%al
  403873:	0f 87 a9 00 00 00    	ja     403922 <.text+0xc2>
  403879:	0f b6 c0             	movzbl %al,%eax
  40387c:	8d 6a 01             	lea    0x1(%edx),%ebp
  40387f:	ff 24 85 44 b1 40 00 	jmp    *0x40b144(,%eax,4)
  403886:	8d 76 00             	lea    0x0(%esi),%esi
  403889:	8d bc 27 00 00 00 00 	lea    0x0(%edi,%eiz,1),%edi
  403890:	31 c0                	xor    %eax,%eax
  403892:	89 2b                	mov    %ebp,(%ebx)
  403894:	83 c4 04             	add    $0x4,%esp
  403897:	5b                   	pop    %ebx
  403898:	5e                   	pop    %esi
  403899:	5f                   	pop    %edi
  40389a:	5d                   	pop    %ebp
  40389b:	c3                   	ret    
  40389c:	8d 74 26 00          	lea    0x0(%esi,%eiz,1),%esi
  4038a0:	be 40 b1 40 00       	mov    $0x40b140,%esi
  4038a5:	b9 03 00 00 00       	mov    $0x3,%ecx
  4038aa:	89 d7                	mov    %edx,%edi
  4038ac:	f3 a6                	repz cmpsb %es:(%edi),%ds:(%esi)
  4038ae:	75 70                	jne    403920 <.text+0xc0>
  4038b0:	8b 2c 24             	mov    (%esp),%ebp
  4038b3:	89 2b                	mov    %ebp,(%ebx)
  4038b5:	83 c4 04             	add    $0x4,%esp
  4038b8:	b8 03 00 00 00       	mov    $0x3,%eax
  4038bd:	5b                   	pop    %ebx
  4038be:	5e                   	pop    %esi
  4038bf:	5f                   	pop    %edi
  4038c0:	5d                   	pop    %ebp
  4038c1:	c3                   	ret    
  4038c2:	be 3c b1 40 00       	mov    $0x40b13c,%esi
  4038c7:	b9 03 00 00 00       	mov    $0x3,%ecx
  4038cc:	89 d7                	mov    %edx,%edi
  4038ce:	f3 a6                	repz cmpsb %es:(%edi),%ds:(%esi)
  4038d0:	8d 42 03             	lea    0x3(%edx),%eax
  4038d3:	0f 97 c1             	seta   %cl
  4038d6:	89 ce                	mov    %ecx,%esi
  4038d8:	89 04 24             	mov    %eax,(%esp)
  4038db:	0f 92 c1             	setb   %cl
  4038de:	89 f0                	mov    %esi,%eax
  4038e0:	38 c8                	cmp    %cl,%al
  4038e2:	75 bc                	jne    4038a0 <.text+0x40>
  4038e4:	8b 2c 24             	mov    (%esp),%ebp
  4038e7:	b8 02 00 00 00       	mov    $0x2,%eax
  4038ec:	eb a4                	jmp    403892 <.text+0x32>
  4038ee:	66 90                	xchg   %ax,%ax
  4038f0:	89 2b                	mov    %ebp,(%ebx)
  4038f2:	83 c4 04             	add    $0x4,%esp
  4038f5:	b8 4c 00 00 00       	mov    $0x4c,%eax
  4038fa:	5b                   	pop    %ebx
  4038fb:	5e                   	pop    %esi
  4038fc:	5f                   	pop    %edi
  4038fd:	5d                   	pop    %ebp
  4038fe:	c3                   	ret    
  4038ff:	90                   	nop
  403900:	3a 4a 01             	cmp    0x1(%edx),%cl
  403903:	74 2b                	je     403930 <.text+0xd0>
  403905:	80 f9 68             	cmp    $0x68,%cl
  403908:	b8 01 00 00 00       	mov    $0x1,%eax
  40390d:	74 83                	je     403892 <.text+0x32>
  40390f:	31 c0                	xor    %eax,%eax
  403911:	80 f9 6c             	cmp    $0x6c,%cl
  403914:	0f 94 c0             	sete   %al
  403917:	01 c0                	add    %eax,%eax
  403919:	e9 74 ff ff ff       	jmp    403892 <.text+0x32>
  40391e:	66 90                	xchg   %ax,%ax
  403920:	89 ea                	mov    %ebp,%edx
  403922:	89 d5                	mov    %edx,%ebp
  403924:	31 c0                	xor    %eax,%eax
  403926:	89 2b                	mov    %ebp,(%ebx)
  403928:	83 c4 04             	add    $0x4,%esp
  40392b:	5b                   	pop    %ebx
  40392c:	5e                   	pop    %esi
  40392d:	5f                   	pop    %edi
  40392e:	5d                   	pop    %ebp
  40392f:	c3                   	ret    
  403930:	80 f9 68             	cmp    $0x68,%cl
  403933:	8d 6a 02             	lea    0x2(%edx),%ebp
  403936:	b8 04 00 00 00       	mov    $0x4,%eax
  40393b:	0f 84 51 ff ff ff    	je     403892 <.text+0x32>
  403941:	31 c0                	xor    %eax,%eax
  403943:	80 f9 6c             	cmp    $0x6c,%cl
  403946:	0f 94 c0             	sete   %al
  403949:	8d 04 40             	lea    (%eax,%eax,2),%eax
  40394c:	e9 41 ff ff ff       	jmp    403892 <.text+0x32>
  403951:	eb 0d                	jmp    403960 <.text+0x100>
  403953:	90                   	nop
  403954:	90                   	nop
  403955:	90                   	nop
  403956:	90                   	nop
  403957:	90                   	nop
  403958:	90                   	nop
  403959:	90                   	nop
  40395a:	90                   	nop
  40395b:	90                   	nop
  40395c:	90                   	nop
  40395d:	90                   	nop
  40395e:	90                   	nop
  40395f:	90                   	nop
  403960:	53                   	push   %ebx
  403961:	89 c1                	mov    %eax,%ecx
  403963:	83 ec 48             	sub    $0x48,%esp
  403966:	8b 44 24 50          	mov    0x50(%esp),%eax
  40396a:	89 44 24 20          	mov    %eax,0x20(%esp)
  40396e:	8b 44 24 54          	mov    0x54(%esp),%eax
  403972:	89 44 24 24          	mov    %eax,0x24(%esp)
  403976:	8b 44 24 58          	mov    0x58(%esp),%eax
  40397a:	89 44 24 28          	mov    %eax,0x28(%esp)
  40397e:	8b 44 24 5c          	mov    0x5c(%esp),%eax
  403982:	db 6c 24 20          	fldt   0x20(%esp)
  403986:	89 44 24 2c          	mov    %eax,0x2c(%esp)
  40398a:	d9 e5                	fxam   
  40398c:	9b df e0             	fstsw  %ax
  40398f:	dd d8                	fstp   %st(0)
  403991:	f6 c4 01             	test   $0x1,%ah
  403994:	74 6a                	je     403a00 <.text+0x1a0>
  403996:	f6 c4 04             	test   $0x4,%ah
  403999:	0f 84 95 00 00 00    	je     403a34 <.text+0x1d4>
  40399f:	0f b7 44 24 28       	movzwl 0x28(%esp),%eax
  4039a4:	c7 44 24 38 03 00 00 	movl   $0x3,0x38(%esp)
  4039ab:	00 
  4039ac:	31 d2                	xor    %edx,%edx
  4039ae:	25 00 80 00 00       	and    $0x8000,%eax
  4039b3:	8b 5c 24 68          	mov    0x68(%esp),%ebx
  4039b7:	89 03                	mov    %eax,(%ebx)
  4039b9:	8d 44 24 3c          	lea    0x3c(%esp),%eax
  4039bd:	89 4c 24 10          	mov    %ecx,0x10(%esp)
  4039c1:	89 54 24 04          	mov    %edx,0x4(%esp)
  4039c5:	c7 04 24 10 a0 40 00 	movl   $0x40a010,(%esp)
  4039cc:	89 44 24 1c          	mov    %eax,0x1c(%esp)
  4039d0:	8b 44 24 64          	mov    0x64(%esp),%eax
  4039d4:	89 44 24 18          	mov    %eax,0x18(%esp)
  4039d8:	8b 44 24 60          	mov    0x60(%esp),%eax
  4039dc:	89 44 24 14          	mov    %eax,0x14(%esp)
  4039e0:	8d 44 24 38          	lea    0x38(%esp),%eax
  4039e4:	89 44 24 0c          	mov    %eax,0xc(%esp)
  4039e8:	8d 44 24 20          	lea    0x20(%esp),%eax
  4039ec:	89 44 24 08          	mov    %eax,0x8(%esp)
  4039f0:	e8 4b 2e 00 00       	call   406840 <___gdtoa>
  4039f5:	83 c4 48             	add    $0x48,%esp
  4039f8:	5b                   	pop    %ebx
  4039f9:	c3                   	ret    
  4039fa:	8d b6 00 00 00 00    	lea    0x0(%esi),%esi
  403a00:	f6 c4 04             	test   $0x4,%ah
  403a03:	74 1b                	je     403a20 <.text+0x1c0>
  403a05:	f6 c4 40             	test   $0x40,%ah
  403a08:	74 3b                	je     403a45 <.text+0x1e5>
  403a0a:	c7 44 24 38 02 00 00 	movl   $0x2,0x38(%esp)
  403a11:	00 
  403a12:	0f b7 44 24 28       	movzwl 0x28(%esp),%eax
  403a17:	ba c3 bf ff ff       	mov    $0xffffbfc3,%edx
  403a1c:	eb 90                	jmp    4039ae <.text+0x14e>
  403a1e:	66 90                	xchg   %ax,%ax
  403a20:	c7 44 24 38 00 00 00 	movl   $0x0,0x38(%esp)
  403a27:	00 
  403a28:	0f b7 44 24 28       	movzwl 0x28(%esp),%eax
  403a2d:	31 d2                	xor    %edx,%edx
  403a2f:	e9 7a ff ff ff       	jmp    4039ae <.text+0x14e>
  403a34:	c7 44 24 38 04 00 00 	movl   $0x4,0x38(%esp)
  403a3b:	00 
  403a3c:	31 d2                	xor    %edx,%edx
  403a3e:	31 c0                	xor    %eax,%eax
  403a40:	e9 6e ff ff ff       	jmp    4039b3 <.text+0x153>
  403a45:	0f b7 44 24 28       	movzwl 0x28(%esp),%eax
  403a4a:	c7 44 24 38 01 00 00 	movl   $0x1,0x38(%esp)
  403a51:	00 
  403a52:	89 c2                	mov    %eax,%edx
  403a54:	81 e2 ff 7f 00 00    	and    $0x7fff,%edx
  403a5a:	81 ea 3e 40 00 00    	sub    $0x403e,%edx
  403a60:	e9 49 ff ff ff       	jmp    4039ae <.text+0x14e>
  403a65:	8d 74 26 00          	lea    0x0(%esi,%eiz,1),%esi
  403a69:	8d bc 27 00 00 00 00 	lea    0x0(%edi,%eiz,1),%edi
  403a70:	53                   	push   %ebx
  403a71:	83 ec 28             	sub    $0x28,%esp
  403a74:	8b 5a 04             	mov    0x4(%edx),%ebx
  403a77:	f6 c7 20             	test   $0x20,%bh
  403a7a:	75 08                	jne    403a84 <.text+0x224>
  403a7c:	8b 4a 18             	mov    0x18(%edx),%ecx
  403a7f:	39 4a 1c             	cmp    %ecx,0x1c(%edx)
  403a82:	7e 10                	jle    403a94 <.text+0x234>
  403a84:	80 e7 10             	and    $0x10,%bh
  403a87:	75 17                	jne    403aa0 <.text+0x240>
  403a89:	8b 4a 18             	mov    0x18(%edx),%ecx
  403a8c:	8b 1a                	mov    (%edx),%ebx
  403a8e:	88 04 0b             	mov    %al,(%ebx,%ecx,1)
  403a91:	8b 4a 18             	mov    0x18(%edx),%ecx
  403a94:	83 c1 01             	add    $0x1,%ecx
  403a97:	89 4a 18             	mov    %ecx,0x18(%edx)
  403a9a:	83 c4 28             	add    $0x28,%esp
  403a9d:	5b                   	pop    %ebx
  403a9e:	c3                   	ret    
  403a9f:	90                   	nop
  403aa0:	8b 0a                	mov    (%edx),%ecx
  403aa2:	89 04 24             	mov    %eax,(%esp)
  403aa5:	89 54 24 1c          	mov    %edx,0x1c(%esp)
  403aa9:	89 4c 24 04          	mov    %ecx,0x4(%esp)
  403aad:	e8 c6 53 00 00       	call   408e78 <_fputc>
  403ab2:	8b 54 24 1c          	mov    0x1c(%esp),%edx
  403ab6:	8b 4a 18             	mov    0x18(%edx),%ecx
  403ab9:	83 c1 01             	add    $0x1,%ecx
  403abc:	89 4a 18             	mov    %ecx,0x18(%edx)
  403abf:	83 c4 28             	add    $0x28,%esp
  403ac2:	5b                   	pop    %ebx
  403ac3:	c3                   	ret    
  403ac4:	8d b6 00 00 00 00    	lea    0x0(%esi),%esi
  403aca:	8d bf 00 00 00 00    	lea    0x0(%edi),%edi
  403ad0:	55                   	push   %ebp
  403ad1:	57                   	push   %edi
  403ad2:	56                   	push   %esi
  403ad3:	53                   	push   %ebx
  403ad4:	89 cb                	mov    %ecx,%ebx
  403ad6:	83 ec 4c             	sub    $0x4c,%esp
  403ad9:	89 44 24 18          	mov    %eax,0x18(%esp)
  403add:	8d 6c 24 30          	lea    0x30(%esp),%ebp
  403ae1:	8d 44 24 2c          	lea    0x2c(%esp),%eax
  403ae5:	c7 44 24 04 00 00 00 	movl   $0x0,0x4(%esp)
  403aec:	00 
  403aed:	89 54 24 1c          	mov    %edx,0x1c(%esp)
  403af1:	89 44 24 08          	mov    %eax,0x8(%esp)
  403af5:	89 2c 24             	mov    %ebp,(%esp)
  403af8:	e8 53 2b 00 00       	call   406650 <_wcrtomb>
  403afd:	8b 73 0c             	mov    0xc(%ebx),%esi
  403b00:	8b 54 24 1c          	mov    0x1c(%esp),%edx
  403b04:	39 d6                	cmp    %edx,%esi
  403b06:	0f 8d d2 00 00 00    	jge    403bde <.text+0x37e>
  403b0c:	85 f6                	test   %esi,%esi
  403b0e:	0f 88 ca 00 00 00    	js     403bde <.text+0x37e>
  403b14:	8b 43 08             	mov    0x8(%ebx),%eax
  403b17:	39 c6                	cmp    %eax,%esi
  403b19:	0f 8c 82 00 00 00    	jl     403ba1 <.text+0x341>
  403b1f:	c7 43 08 ff ff ff ff 	movl   $0xffffffff,0x8(%ebx)
  403b26:	89 74 24 1c          	mov    %esi,0x1c(%esp)
  403b2a:	8d b6 00 00 00 00    	lea    0x0(%esi),%esi
  403b30:	8b 44 24 1c          	mov    0x1c(%esp),%eax
  403b34:	85 c0                	test   %eax,%eax
  403b36:	7e 54                	jle    403b8c <.text+0x32c>
  403b38:	83 44 24 18 02       	addl   $0x2,0x18(%esp)
  403b3d:	8d 4c 24 2c          	lea    0x2c(%esp),%ecx
  403b41:	8b 44 24 18          	mov    0x18(%esp),%eax
  403b45:	89 4c 24 08          	mov    %ecx,0x8(%esp)
  403b49:	0f b7 40 fe          	movzwl -0x2(%eax),%eax
  403b4d:	89 2c 24             	mov    %ebp,(%esp)
  403b50:	89 44 24 04          	mov    %eax,0x4(%esp)
  403b54:	e8 f7 2a 00 00       	call   406650 <_wcrtomb>
  403b59:	85 c0                	test   %eax,%eax
  403b5b:	7e 2f                	jle    403b8c <.text+0x32c>
  403b5d:	8d 74 05 00          	lea    0x0(%ebp,%eax,1),%esi
  403b61:	89 ef                	mov    %ebp,%edi
  403b63:	83 c7 01             	add    $0x1,%edi
  403b66:	0f be 47 ff          	movsbl -0x1(%edi),%eax
  403b6a:	89 da                	mov    %ebx,%edx
  403b6c:	e8 ff fe ff ff       	call   403a70 <.text+0x210>
  403b71:	39 f7                	cmp    %esi,%edi
  403b73:	75 ee                	jne    403b63 <.text+0x303>
  403b75:	83 6c 24 1c 01       	subl   $0x1,0x1c(%esp)
  403b7a:	eb b4                	jmp    403b30 <.text+0x2d0>
  403b7c:	8d 74 26 00          	lea    0x0(%esi,%eiz,1),%esi
  403b80:	89 da                	mov    %ebx,%edx
  403b82:	b8 20 00 00 00       	mov    $0x20,%eax
  403b87:	e8 e4 fe ff ff       	call   403a70 <.text+0x210>
  403b8c:	8b 43 08             	mov    0x8(%ebx),%eax
  403b8f:	8d 50 ff             	lea    -0x1(%eax),%edx
  403b92:	85 c0                	test   %eax,%eax
  403b94:	89 53 08             	mov    %edx,0x8(%ebx)
  403b97:	7f e7                	jg     403b80 <.text+0x320>
  403b99:	83 c4 4c             	add    $0x4c,%esp
  403b9c:	5b                   	pop    %ebx
  403b9d:	5e                   	pop    %esi
  403b9e:	5f                   	pop    %edi
  403b9f:	5d                   	pop    %ebp
  403ba0:	c3                   	ret    
  403ba1:	29 f0                	sub    %esi,%eax
  403ba3:	f6 43 05 04          	testb  $0x4,0x5(%ebx)
  403ba7:	89 43 08             	mov    %eax,0x8(%ebx)
  403baa:	0f 85 76 ff ff ff    	jne    403b26 <.text+0x2c6>
  403bb0:	83 e8 01             	sub    $0x1,%eax
  403bb3:	89 43 08             	mov    %eax,0x8(%ebx)
  403bb6:	8d 76 00             	lea    0x0(%esi),%esi
  403bb9:	8d bc 27 00 00 00 00 	lea    0x0(%edi,%eiz,1),%edi
  403bc0:	89 da                	mov    %ebx,%edx
  403bc2:	b8 20 00 00 00       	mov    $0x20,%eax
  403bc7:	e8 a4 fe ff ff       	call   403a70 <.text+0x210>
  403bcc:	8b 43 08             	mov    0x8(%ebx),%eax
  403bcf:	8d 50 ff             	lea    -0x1(%eax),%edx
  403bd2:	85 c0                	test   %eax,%eax
  403bd4:	89 53 08             	mov    %edx,0x8(%ebx)
  403bd7:	75 e7                	jne    403bc0 <.text+0x360>
  403bd9:	e9 48 ff ff ff       	jmp    403b26 <.text+0x2c6>
  403bde:	89 d6                	mov    %edx,%esi
  403be0:	e9 2f ff ff ff       	jmp    403b14 <.text+0x2b4>
  403be5:	8d 74 26 00          	lea    0x0(%esi,%eiz,1),%esi
  403be9:	8d bc 27 00 00 00 00 	lea    0x0(%edi,%eiz,1),%edi
  403bf0:	55                   	push   %ebp
  403bf1:	57                   	push   %edi
  403bf2:	56                   	push   %esi
  403bf3:	53                   	push   %ebx
  403bf4:	89 c6                	mov    %eax,%esi
  403bf6:	89 cb                	mov    %ecx,%ebx
  403bf8:	83 ec 0c             	sub    $0xc,%esp
  403bfb:	8b 69 0c             	mov    0xc(%ecx),%ebp
  403bfe:	85 ed                	test   %ebp,%ebp
  403c00:	78 7f                	js     403c81 <.text+0x421>
  403c02:	39 d5                	cmp    %edx,%ebp
  403c04:	7d 7b                	jge    403c81 <.text+0x421>
  403c06:	8b 43 08             	mov    0x8(%ebx),%eax
  403c09:	39 c5                	cmp    %eax,%ebp
  403c0b:	7c 33                	jl     403c40 <.text+0x3e0>
  403c0d:	85 ed                	test   %ebp,%ebp
  403c0f:	c7 43 08 ff ff ff ff 	movl   $0xffffffff,0x8(%ebx)
  403c16:	8d 7d ff             	lea    -0x1(%ebp),%edi
  403c19:	0f 84 99 00 00 00    	je     403cb8 <.text+0x458>
  403c1f:	89 f5                	mov    %esi,%ebp
  403c21:	83 c5 01             	add    $0x1,%ebp
  403c24:	0f be 45 ff          	movsbl -0x1(%ebp),%eax
  403c28:	89 da                	mov    %ebx,%edx
  403c2a:	e8 41 fe ff ff       	call   403a70 <.text+0x210>
  403c2f:	b8 01 00 00 00       	mov    $0x1,%eax
  403c34:	29 e8                	sub    %ebp,%eax
  403c36:	01 f8                	add    %edi,%eax
  403c38:	01 f0                	add    %esi,%eax
  403c3a:	75 e5                	jne    403c21 <.text+0x3c1>
  403c3c:	eb 2e                	jmp    403c6c <.text+0x40c>
  403c3e:	66 90                	xchg   %ax,%ax
  403c40:	29 e8                	sub    %ebp,%eax
  403c42:	f6 43 05 04          	testb  $0x4,0x5(%ebx)
  403c46:	89 43 08             	mov    %eax,0x8(%ebx)
  403c49:	74 3a                	je     403c85 <.text+0x425>
  403c4b:	85 ed                	test   %ebp,%ebp
  403c4d:	8d 7d ff             	lea    -0x1(%ebp),%edi
  403c50:	75 cd                	jne    403c1f <.text+0x3bf>
  403c52:	83 e8 01             	sub    $0x1,%eax
  403c55:	89 43 08             	mov    %eax,0x8(%ebx)
  403c58:	90                   	nop
  403c59:	8d b4 26 00 00 00 00 	lea    0x0(%esi,%eiz,1),%esi
  403c60:	89 da                	mov    %ebx,%edx
  403c62:	b8 20 00 00 00       	mov    $0x20,%eax
  403c67:	e8 04 fe ff ff       	call   403a70 <.text+0x210>
  403c6c:	8b 43 08             	mov    0x8(%ebx),%eax
  403c6f:	8d 50 ff             	lea    -0x1(%eax),%edx
  403c72:	85 c0                	test   %eax,%eax
  403c74:	89 53 08             	mov    %edx,0x8(%ebx)
  403c77:	7f e7                	jg     403c60 <.text+0x400>
  403c79:	83 c4 0c             	add    $0xc,%esp
  403c7c:	5b                   	pop    %ebx
  403c7d:	5e                   	pop    %esi
  403c7e:	5f                   	pop    %edi
  403c7f:	5d                   	pop    %ebp
  403c80:	c3                   	ret    
  403c81:	89 d5                	mov    %edx,%ebp
  403c83:	eb 81                	jmp    403c06 <.text+0x3a6>
  403c85:	83 e8 01             	sub    $0x1,%eax
  403c88:	89 43 08             	mov    %eax,0x8(%ebx)
  403c8b:	90                   	nop
  403c8c:	8d 74 26 00          	lea    0x0(%esi,%eiz,1),%esi
  403c90:	89 da                	mov    %ebx,%edx
  403c92:	b8 20 00 00 00       	mov    $0x20,%eax
  403c97:	e8 d4 fd ff ff       	call   403a70 <.text+0x210>
  403c9c:	8b 43 08             	mov    0x8(%ebx),%eax
  403c9f:	89 c2                	mov    %eax,%edx
  403ca1:	83 e8 01             	sub    $0x1,%eax
  403ca4:	85 d2                	test   %edx,%edx
  403ca6:	89 43 08             	mov    %eax,0x8(%ebx)
  403ca9:	75 e5                	jne    403c90 <.text+0x430>
  403cab:	85 ed                	test   %ebp,%ebp
  403cad:	8d 7d ff             	lea    -0x1(%ebp),%edi
  403cb0:	0f 85 69 ff ff ff    	jne    403c1f <.text+0x3bf>
  403cb6:	eb b7                	jmp    403c6f <.text+0x40f>
  403cb8:	c7 43 08 fe ff ff ff 	movl   $0xfffffffe,0x8(%ebx)
  403cbf:	eb b8                	jmp    403c79 <.text+0x419>
  403cc1:	eb 0d                	jmp    403cd0 <.text+0x470>
  403cc3:	90                   	nop
  403cc4:	90                   	nop
  403cc5:	90                   	nop
  403cc6:	90                   	nop
  403cc7:	90                   	nop
  403cc8:	90                   	nop
  403cc9:	90                   	nop
  403cca:	90                   	nop
  403ccb:	90                   	nop
  403ccc:	90                   	nop
  403ccd:	90                   	nop
  403cce:	90                   	nop
  403ccf:	90                   	nop
  403cd0:	55                   	push   %ebp
  403cd1:	57                   	push   %edi
  403cd2:	56                   	push   %esi
  403cd3:	53                   	push   %ebx
  403cd4:	83 ec 1c             	sub    $0x1c,%esp
  403cd7:	85 c0                	test   %eax,%eax
  403cd9:	c7 41 0c ff ff ff ff 	movl   $0xffffffff,0xc(%ecx)
  403ce0:	74 3e                	je     403d20 <.text+0x4c0>
  403ce2:	8b 69 04             	mov    0x4(%ecx),%ebp
  403ce5:	8d 7c 24 0d          	lea    0xd(%esp),%edi
  403ce9:	8d 44 24 0c          	lea    0xc(%esp),%eax
  403ced:	c6 44 24 0c 2d       	movb   $0x2d,0xc(%esp)
  403cf2:	83 e5 20             	and    $0x20,%ebp
  403cf5:	31 f6                	xor    %esi,%esi
  403cf7:	0f b6 1c 32          	movzbl (%edx,%esi,1),%ebx
  403cfb:	83 e3 df             	and    $0xffffffdf,%ebx
  403cfe:	09 eb                	or     %ebp,%ebx
  403d00:	88 1c 37             	mov    %bl,(%edi,%esi,1)
  403d03:	83 c6 01             	add    $0x1,%esi
  403d06:	83 fe 03             	cmp    $0x3,%esi
  403d09:	75 ec                	jne    403cf7 <.text+0x497>
  403d0b:	8d 57 03             	lea    0x3(%edi),%edx
  403d0e:	29 c2                	sub    %eax,%edx
  403d10:	e8 db fe ff ff       	call   403bf0 <.text+0x390>
  403d15:	83 c4 1c             	add    $0x1c,%esp
  403d18:	5b                   	pop    %ebx
  403d19:	5e                   	pop    %esi
  403d1a:	5f                   	pop    %edi
  403d1b:	5d                   	pop    %ebp
  403d1c:	c3                   	ret    
  403d1d:	8d 76 00             	lea    0x0(%esi),%esi
  403d20:	8b 69 04             	mov    0x4(%ecx),%ebp
  403d23:	f7 c5 00 01 00 00    	test   $0x100,%ebp
  403d29:	74 15                	je     403d40 <.text+0x4e0>
  403d2b:	c6 44 24 0c 2b       	movb   $0x2b,0xc(%esp)
  403d30:	8d 7c 24 0d          	lea    0xd(%esp),%edi
  403d34:	8d 44 24 0c          	lea    0xc(%esp),%eax
  403d38:	eb b8                	jmp    403cf2 <.text+0x492>
  403d3a:	8d b6 00 00 00 00    	lea    0x0(%esi),%esi
  403d40:	f7 c5 40 00 00 00    	test   $0x40,%ebp
  403d46:	74 18                	je     403d60 <.text+0x500>
  403d48:	c6 44 24 0c 20       	movb   $0x20,0xc(%esp)
  403d4d:	8d 7c 24 0d          	lea    0xd(%esp),%edi
  403d51:	8d 44 24 0c          	lea    0xc(%esp),%eax
  403d55:	eb 9b                	jmp    403cf2 <.text+0x492>
  403d57:	89 f6                	mov    %esi,%esi
  403d59:	8d bc 27 00 00 00 00 	lea    0x0(%edi,%eiz,1),%edi
  403d60:	8d 44 24 0c          	lea    0xc(%esp),%eax
  403d64:	89 c7                	mov    %eax,%edi
  403d66:	eb 8a                	jmp    403cf2 <.text+0x492>
  403d68:	90                   	nop
  403d69:	8d b4 26 00 00 00 00 	lea    0x0(%esi,%eiz,1),%esi
  403d70:	55                   	push   %ebp
  403d71:	89 e5                	mov    %esp,%ebp
  403d73:	57                   	push   %edi
  403d74:	56                   	push   %esi
  403d75:	53                   	push   %ebx
  403d76:	89 cf                	mov    %ecx,%edi
  403d78:	89 d6                	mov    %edx,%esi
  403d7a:	89 c3                	mov    %eax,%ebx
  403d7c:	89 c2                	mov    %eax,%edx
  403d7e:	89 f1                	mov    %esi,%ecx
  403d80:	83 ec 3c             	sub    $0x3c,%esp
  403d83:	8b 47 08             	mov    0x8(%edi),%eax
  403d86:	89 45 d8             	mov    %eax,-0x28(%ebp)
  403d89:	8b 47 0c             	mov    0xc(%edi),%eax
  403d8c:	89 45 dc             	mov    %eax,-0x24(%ebp)
  403d8f:	c1 f8 1f             	sar    $0x1f,%eax
  403d92:	f7 d0                	not    %eax
  403d94:	23 45 dc             	and    -0x24(%ebp),%eax
  403d97:	83 c0 17             	add    $0x17,%eax
  403d9a:	3b 45 d8             	cmp    -0x28(%ebp),%eax
  403d9d:	7d 03                	jge    403da2 <.text+0x542>
  403d9f:	8b 45 d8             	mov    -0x28(%ebp),%eax
  403da2:	83 c0 0f             	add    $0xf,%eax
  403da5:	c1 e8 04             	shr    $0x4,%eax
  403da8:	c1 e0 04             	shl    $0x4,%eax
  403dab:	e8 50 e4 ff ff       	call   402200 <___chkstk_ms>
  403db0:	29 c4                	sub    %eax,%esp
  403db2:	8d 44 24 10          	lea    0x10(%esp),%eax
  403db6:	89 45 e4             	mov    %eax,-0x1c(%ebp)
  403db9:	8b 47 04             	mov    0x4(%edi),%eax
  403dbc:	a8 80                	test   $0x80,%al
  403dbe:	89 45 e0             	mov    %eax,-0x20(%ebp)
  403dc1:	74 15                	je     403dd8 <.text+0x578>
  403dc3:	85 f6                	test   %esi,%esi
  403dc5:	0f 88 d5 01 00 00    	js     403fa0 <.text+0x740>
  403dcb:	81 65 e0 7f ff ff ff 	andl   $0xffffff7f,-0x20(%ebp)
  403dd2:	8b 45 e0             	mov    -0x20(%ebp),%eax
  403dd5:	89 47 04             	mov    %eax,0x4(%edi)
  403dd8:	89 c8                	mov    %ecx,%eax
  403dda:	89 d3                	mov    %edx,%ebx
  403ddc:	8b 75 e4             	mov    -0x1c(%ebp),%esi
  403ddf:	09 d0                	or     %edx,%eax
  403de1:	74 5b                	je     403e3e <.text+0x5de>
  403de3:	89 7d d4             	mov    %edi,-0x2c(%ebp)
  403de6:	89 cf                	mov    %ecx,%edi
  403de8:	90                   	nop
  403de9:	8d b4 26 00 00 00 00 	lea    0x0(%esi,%eiz,1),%esi
  403df0:	89 1c 24             	mov    %ebx,(%esp)
  403df3:	89 7c 24 04          	mov    %edi,0x4(%esp)
  403df7:	83 c6 01             	add    $0x1,%esi
  403dfa:	c7 44 24 08 0a 00 00 	movl   $0xa,0x8(%esp)
  403e01:	00 
  403e02:	c7 44 24 0c 00 00 00 	movl   $0x0,0xc(%esp)
  403e09:	00 
  403e0a:	e8 a1 52 00 00       	call   4090b0 <___umoddi3>
  403e0f:	83 c0 30             	add    $0x30,%eax
  403e12:	88 46 ff             	mov    %al,-0x1(%esi)
  403e15:	89 1c 24             	mov    %ebx,(%esp)
  403e18:	89 7c 24 04          	mov    %edi,0x4(%esp)
  403e1c:	c7 44 24 08 0a 00 00 	movl   $0xa,0x8(%esp)
  403e23:	00 
  403e24:	c7 44 24 0c 00 00 00 	movl   $0x0,0xc(%esp)
  403e2b:	00 
  403e2c:	e8 5f 51 00 00       	call   408f90 <___udivdi3>
  403e31:	89 c3                	mov    %eax,%ebx
  403e33:	89 d0                	mov    %edx,%eax
  403e35:	89 d7                	mov    %edx,%edi
  403e37:	09 d8                	or     %ebx,%eax
  403e39:	75 b5                	jne    403df0 <.text+0x590>
  403e3b:	8b 7d d4             	mov    -0x2c(%ebp),%edi
  403e3e:	8b 4d dc             	mov    -0x24(%ebp),%ecx
  403e41:	89 f3                	mov    %esi,%ebx
  403e43:	85 c9                	test   %ecx,%ecx
  403e45:	7e 19                	jle    403e60 <.text+0x600>
  403e47:	89 f0                	mov    %esi,%eax
  403e49:	2b 45 e4             	sub    -0x1c(%ebp),%eax
  403e4c:	29 c1                	sub    %eax,%ecx
  403e4e:	85 c9                	test   %ecx,%ecx
  403e50:	7e 0e                	jle    403e60 <.text+0x600>
  403e52:	8d 1c 0e             	lea    (%esi,%ecx,1),%ebx
  403e55:	83 c6 01             	add    $0x1,%esi
  403e58:	c6 46 ff 30          	movb   $0x30,-0x1(%esi)
  403e5c:	39 de                	cmp    %ebx,%esi
  403e5e:	75 f5                	jne    403e55 <.text+0x5f5>
  403e60:	8b 55 dc             	mov    -0x24(%ebp),%edx
  403e63:	85 d2                	test   %edx,%edx
  403e65:	74 0b                	je     403e72 <.text+0x612>
  403e67:	3b 5d e4             	cmp    -0x1c(%ebp),%ebx
  403e6a:	75 06                	jne    403e72 <.text+0x612>
  403e6c:	c6 03 30             	movb   $0x30,(%ebx)
  403e6f:	83 c3 01             	add    $0x1,%ebx
  403e72:	8b 4d d8             	mov    -0x28(%ebp),%ecx
  403e75:	85 c9                	test   %ecx,%ecx
  403e77:	7e 66                	jle    403edf <.text+0x67f>
  403e79:	89 d8                	mov    %ebx,%eax
  403e7b:	2b 45 e4             	sub    -0x1c(%ebp),%eax
  403e7e:	29 c1                	sub    %eax,%ecx
  403e80:	85 c9                	test   %ecx,%ecx
  403e82:	89 c8                	mov    %ecx,%eax
  403e84:	89 4f 08             	mov    %ecx,0x8(%edi)
  403e87:	7e 56                	jle    403edf <.text+0x67f>
  403e89:	f7 45 e0 c0 01 00 00 	testl  $0x1c0,-0x20(%ebp)
  403e90:	74 06                	je     403e98 <.text+0x638>
  403e92:	83 e8 01             	sub    $0x1,%eax
  403e95:	89 47 08             	mov    %eax,0x8(%edi)
  403e98:	8b 45 dc             	mov    -0x24(%ebp),%eax
  403e9b:	85 c0                	test   %eax,%eax
  403e9d:	0f 88 b0 00 00 00    	js     403f53 <.text+0x6f3>
  403ea3:	f7 45 e0 00 04 00 00 	testl  $0x400,-0x20(%ebp)
  403eaa:	75 33                	jne    403edf <.text+0x67f>
  403eac:	8b 47 08             	mov    0x8(%edi),%eax
  403eaf:	8d 50 ff             	lea    -0x1(%eax),%edx
  403eb2:	85 c0                	test   %eax,%eax
  403eb4:	89 57 08             	mov    %edx,0x8(%edi)
  403eb7:	7e 26                	jle    403edf <.text+0x67f>
  403eb9:	8d b4 26 00 00 00 00 	lea    0x0(%esi,%eiz,1),%esi
  403ec0:	89 fa                	mov    %edi,%edx
  403ec2:	b8 20 00 00 00       	mov    $0x20,%eax
  403ec7:	e8 a4 fb ff ff       	call   403a70 <.text+0x210>
  403ecc:	8b 47 08             	mov    0x8(%edi),%eax
  403ecf:	8d 50 ff             	lea    -0x1(%eax),%edx
  403ed2:	85 c0                	test   %eax,%eax
  403ed4:	89 57 08             	mov    %edx,0x8(%edi)
  403ed7:	7f e7                	jg     403ec0 <.text+0x660>
  403ed9:	8b 47 04             	mov    0x4(%edi),%eax
  403edc:	89 45 e0             	mov    %eax,-0x20(%ebp)
  403edf:	f6 45 e0 80          	testb  $0x80,-0x20(%ebp)
  403ee3:	74 4d                	je     403f32 <.text+0x6d2>
  403ee5:	8d 73 01             	lea    0x1(%ebx),%esi
  403ee8:	c6 03 2d             	movb   $0x2d,(%ebx)
  403eeb:	39 75 e4             	cmp    %esi,-0x1c(%ebp)
  403eee:	8b 5d e4             	mov    -0x1c(%ebp),%ebx
  403ef1:	73 2a                	jae    403f1d <.text+0x6bd>
  403ef3:	83 ee 01             	sub    $0x1,%esi
  403ef6:	0f be 06             	movsbl (%esi),%eax
  403ef9:	89 fa                	mov    %edi,%edx
  403efb:	e8 70 fb ff ff       	call   403a70 <.text+0x210>
  403f00:	39 f3                	cmp    %esi,%ebx
  403f02:	75 ef                	jne    403ef3 <.text+0x693>
  403f04:	8b 47 08             	mov    0x8(%edi),%eax
  403f07:	8d 50 ff             	lea    -0x1(%eax),%edx
  403f0a:	85 c0                	test   %eax,%eax
  403f0c:	89 57 08             	mov    %edx,0x8(%edi)
  403f0f:	7e 19                	jle    403f2a <.text+0x6ca>
  403f11:	89 fa                	mov    %edi,%edx
  403f13:	b8 20 00 00 00       	mov    $0x20,%eax
  403f18:	e8 53 fb ff ff       	call   403a70 <.text+0x210>
  403f1d:	8b 47 08             	mov    0x8(%edi),%eax
  403f20:	8d 50 ff             	lea    -0x1(%eax),%edx
  403f23:	85 c0                	test   %eax,%eax
  403f25:	89 57 08             	mov    %edx,0x8(%edi)
  403f28:	7f e7                	jg     403f11 <.text+0x6b1>
  403f2a:	8d 65 f4             	lea    -0xc(%ebp),%esp
  403f2d:	5b                   	pop    %ebx
  403f2e:	5e                   	pop    %esi
  403f2f:	5f                   	pop    %edi
  403f30:	5d                   	pop    %ebp
  403f31:	c3                   	ret    
  403f32:	f7 45 e0 00 01 00 00 	testl  $0x100,-0x20(%ebp)
  403f39:	74 08                	je     403f43 <.text+0x6e3>
  403f3b:	8d 73 01             	lea    0x1(%ebx),%esi
  403f3e:	c6 03 2b             	movb   $0x2b,(%ebx)
  403f41:	eb a8                	jmp    403eeb <.text+0x68b>
  403f43:	f6 45 e0 40          	testb  $0x40,-0x20(%ebp)
  403f47:	89 de                	mov    %ebx,%esi
  403f49:	74 a0                	je     403eeb <.text+0x68b>
  403f4b:	83 c6 01             	add    $0x1,%esi
  403f4e:	c6 03 20             	movb   $0x20,(%ebx)
  403f51:	eb 98                	jmp    403eeb <.text+0x68b>
  403f53:	8b 45 e0             	mov    -0x20(%ebp),%eax
  403f56:	25 00 06 00 00       	and    $0x600,%eax
  403f5b:	3d 00 02 00 00       	cmp    $0x200,%eax
  403f60:	0f 85 3d ff ff ff    	jne    403ea3 <.text+0x643>
  403f66:	8b 47 08             	mov    0x8(%edi),%eax
  403f69:	8d 50 ff             	lea    -0x1(%eax),%edx
  403f6c:	85 c0                	test   %eax,%eax
  403f6e:	89 57 08             	mov    %edx,0x8(%edi)
  403f71:	0f 8e 68 ff ff ff    	jle    403edf <.text+0x67f>
  403f77:	01 d8                	add    %ebx,%eax
  403f79:	8d b4 26 00 00 00 00 	lea    0x0(%esi,%eiz,1),%esi
  403f80:	83 c3 01             	add    $0x1,%ebx
  403f83:	c6 43 ff 30          	movb   $0x30,-0x1(%ebx)
  403f87:	39 c3                	cmp    %eax,%ebx
  403f89:	75 f5                	jne    403f80 <.text+0x720>
  403f8b:	c7 47 08 ff ff ff ff 	movl   $0xffffffff,0x8(%edi)
  403f92:	e9 48 ff ff ff       	jmp    403edf <.text+0x67f>
  403f97:	89 f6                	mov    %esi,%esi
  403f99:	8d bc 27 00 00 00 00 	lea    0x0(%edi,%eiz,1),%edi
  403fa0:	f7 db                	neg    %ebx
  403fa2:	83 d6 00             	adc    $0x0,%esi
  403fa5:	89 da                	mov    %ebx,%edx
  403fa7:	f7 de                	neg    %esi
  403fa9:	89 f1                	mov    %esi,%ecx
  403fab:	e9 28 fe ff ff       	jmp    403dd8 <.text+0x578>
  403fb0:	55                   	push   %ebp
  403fb1:	89 e5                	mov    %esp,%ebp
  403fb3:	57                   	push   %edi
  403fb4:	56                   	push   %esi
  403fb5:	53                   	push   %ebx
  403fb6:	89 d6                	mov    %edx,%esi
  403fb8:	89 cf                	mov    %ecx,%edi
  403fba:	83 ec 2c             	sub    $0x2c,%esp
  403fbd:	89 55 e4             	mov    %edx,-0x1c(%ebp)
  403fc0:	31 d2                	xor    %edx,%edx
  403fc2:	83 f8 6f             	cmp    $0x6f,%eax
  403fc5:	89 45 dc             	mov    %eax,-0x24(%ebp)
  403fc8:	0f 94 c2             	sete   %dl
  403fcb:	83 ea 01             	sub    $0x1,%edx
  403fce:	83 e2 fa             	and    $0xfffffffa,%edx
  403fd1:	83 f8 6f             	cmp    $0x6f,%eax
  403fd4:	0f 95 c0             	setne  %al
  403fd7:	0f b6 d8             	movzbl %al,%ebx
  403fda:	0f b6 c0             	movzbl %al,%eax
  403fdd:	83 c0 03             	add    $0x3,%eax
  403fe0:	8d 1c dd 07 00 00 00 	lea    0x7(,%ebx,8),%ebx
  403fe7:	89 45 d0             	mov    %eax,-0x30(%ebp)
  403fea:	8b 45 08             	mov    0x8(%ebp),%eax
  403fed:	89 5d e0             	mov    %ebx,-0x20(%ebp)
  403ff0:	8b 5d 08             	mov    0x8(%ebp),%ebx
  403ff3:	8b 40 08             	mov    0x8(%eax),%eax
  403ff6:	89 45 d4             	mov    %eax,-0x2c(%ebp)
  403ff9:	8b 43 0c             	mov    0xc(%ebx),%eax
  403ffc:	89 c3                	mov    %eax,%ebx
  403ffe:	89 45 d8             	mov    %eax,-0x28(%ebp)
  404001:	c1 f8 1f             	sar    $0x1f,%eax
  404004:	f7 d0                	not    %eax
  404006:	21 d8                	and    %ebx,%eax
  404008:	8d 44 02 18          	lea    0x18(%edx,%eax,1),%eax
  40400c:	8b 55 d4             	mov    -0x2c(%ebp),%edx
  40400f:	39 d0                	cmp    %edx,%eax
  404011:	7d 02                	jge    404015 <.text+0x7b5>
  404013:	89 d0                	mov    %edx,%eax
  404015:	83 c0 0f             	add    $0xf,%eax
  404018:	c1 e8 04             	shr    $0x4,%eax
  40401b:	c1 e0 04             	shl    $0x4,%eax
  40401e:	e8 dd e1 ff ff       	call   402200 <___chkstk_ms>
  404023:	29 c4                	sub    %eax,%esp
  404025:	8b 45 e4             	mov    -0x1c(%ebp),%eax
  404028:	89 e3                	mov    %esp,%ebx
  40402a:	09 c8                	or     %ecx,%eax
  40402c:	0f 84 7e 02 00 00    	je     4042b0 <.text+0xa50>
  404032:	0f b6 4d dc          	movzbl -0x24(%ebp),%ecx
  404036:	0f b6 45 e0          	movzbl -0x20(%ebp),%eax
  40403a:	83 e1 20             	and    $0x20,%ecx
  40403d:	88 45 e4             	mov    %al,-0x1c(%ebp)
  404040:	89 e0                	mov    %esp,%eax
  404042:	88 4d e0             	mov    %cl,-0x20(%ebp)
  404045:	8b 4d d0             	mov    -0x30(%ebp),%ecx
  404048:	89 65 d0             	mov    %esp,-0x30(%ebp)
  40404b:	eb 1a                	jmp    404067 <.text+0x807>
  40404d:	8d 76 00             	lea    0x0(%esi),%esi
  404050:	88 58 ff             	mov    %bl,-0x1(%eax)
  404053:	0f ad fe             	shrd   %cl,%edi,%esi
  404056:	d3 ef                	shr    %cl,%edi
  404058:	f6 c1 20             	test   $0x20,%cl
  40405b:	74 04                	je     404061 <.text+0x801>
  40405d:	89 fe                	mov    %edi,%esi
  40405f:	31 ff                	xor    %edi,%edi
  404061:	89 fb                	mov    %edi,%ebx
  404063:	09 f3                	or     %esi,%ebx
  404065:	74 1c                	je     404083 <.text+0x823>
  404067:	0f b6 55 e4          	movzbl -0x1c(%ebp),%edx
  40406b:	83 c0 01             	add    $0x1,%eax
  40406e:	21 f2                	and    %esi,%edx
  404070:	8d 5a 30             	lea    0x30(%edx),%ebx
  404073:	80 fb 39             	cmp    $0x39,%bl
  404076:	76 d8                	jbe    404050 <.text+0x7f0>
  404078:	83 c2 37             	add    $0x37,%edx
  40407b:	0a 55 e0             	or     -0x20(%ebp),%dl
  40407e:	88 50 ff             	mov    %dl,-0x1(%eax)
  404081:	eb d0                	jmp    404053 <.text+0x7f3>
  404083:	8b 5d d0             	mov    -0x30(%ebp),%ebx
  404086:	39 c3                	cmp    %eax,%ebx
  404088:	0f 84 24 02 00 00    	je     4042b2 <.text+0xa52>
  40408e:	8b 4d d8             	mov    -0x28(%ebp),%ecx
  404091:	85 c9                	test   %ecx,%ecx
  404093:	0f 8e 49 01 00 00    	jle    4041e2 <.text+0x982>
  404099:	89 c2                	mov    %eax,%edx
  40409b:	29 da                	sub    %ebx,%edx
  40409d:	29 d1                	sub    %edx,%ecx
  40409f:	85 c9                	test   %ecx,%ecx
  4040a1:	0f 8e 3b 01 00 00    	jle    4041e2 <.text+0x982>
  4040a7:	8d 3c 08             	lea    (%eax,%ecx,1),%edi
  4040aa:	8d b6 00 00 00 00    	lea    0x0(%esi),%esi
  4040b0:	83 c0 01             	add    $0x1,%eax
  4040b3:	c6 40 ff 30          	movb   $0x30,-0x1(%eax)
  4040b7:	39 f8                	cmp    %edi,%eax
  4040b9:	75 f5                	jne    4040b0 <.text+0x850>
  4040bb:	39 df                	cmp    %ebx,%edi
  4040bd:	75 11                	jne    4040d0 <.text+0x870>
  4040bf:	8b 45 d8             	mov    -0x28(%ebp),%eax
  4040c2:	85 c0                	test   %eax,%eax
  4040c4:	74 0a                	je     4040d0 <.text+0x870>
  4040c6:	c6 07 30             	movb   $0x30,(%edi)
  4040c9:	83 c7 01             	add    $0x1,%edi
  4040cc:	8d 74 26 00          	lea    0x0(%esi,%eiz,1),%esi
  4040d0:	89 f8                	mov    %edi,%eax
  4040d2:	29 d8                	sub    %ebx,%eax
  4040d4:	39 45 d4             	cmp    %eax,-0x2c(%ebp)
  4040d7:	7e 44                	jle    40411d <.text+0x8bd>
  4040d9:	8b 75 d4             	mov    -0x2c(%ebp),%esi
  4040dc:	29 c6                	sub    %eax,%esi
  4040de:	83 7d dc 6f          	cmpl   $0x6f,-0x24(%ebp)
  4040e2:	8b 45 08             	mov    0x8(%ebp),%eax
  4040e5:	89 70 08             	mov    %esi,0x8(%eax)
  4040e8:	0f 84 92 01 00 00    	je     404280 <.text+0xa20>
  4040ee:	8b 45 08             	mov    0x8(%ebp),%eax
  4040f1:	8b 40 04             	mov    0x4(%eax),%eax
  4040f4:	f6 c4 08             	test   $0x8,%ah
  4040f7:	0f 85 b3 00 00 00    	jne    4041b0 <.text+0x950>
  4040fd:	8b 55 d8             	mov    -0x28(%ebp),%edx
  404100:	85 d2                	test   %edx,%edx
  404102:	0f 88 b6 00 00 00    	js     4041be <.text+0x95e>
  404108:	f6 c4 04             	test   $0x4,%ah
  40410b:	0f 84 14 01 00 00    	je     404225 <.text+0x9c5>
  404111:	39 df                	cmp    %ebx,%edi
  404113:	77 4c                	ja     404161 <.text+0x901>
  404115:	8d 5e ff             	lea    -0x1(%esi),%ebx
  404118:	8b 75 08             	mov    0x8(%ebp),%esi
  40411b:	eb 73                	jmp    404190 <.text+0x930>
  40411d:	83 7d dc 6f          	cmpl   $0x6f,-0x24(%ebp)
  404121:	8b 45 08             	mov    0x8(%ebp),%eax
  404124:	c7 40 08 ff ff ff ff 	movl   $0xffffffff,0x8(%eax)
  40412b:	0f 84 bb 01 00 00    	je     4042ec <.text+0xa8c>
  404131:	8b 45 08             	mov    0x8(%ebp),%eax
  404134:	89 fa                	mov    %edi,%edx
  404136:	8b 40 04             	mov    0x4(%eax),%eax
  404139:	89 c1                	mov    %eax,%ecx
  40413b:	81 e1 00 08 00 00    	and    $0x800,%ecx
  404141:	85 c9                	test   %ecx,%ecx
  404143:	be ff ff ff ff       	mov    $0xffffffff,%esi
  404148:	89 d7                	mov    %edx,%edi
  40414a:	74 11                	je     40415d <.text+0x8fd>
  40414c:	0f b6 4d dc          	movzbl -0x24(%ebp),%ecx
  404150:	85 f6                	test   %esi,%esi
  404152:	8d 7a 02             	lea    0x2(%edx),%edi
  404155:	c6 42 01 30          	movb   $0x30,0x1(%edx)
  404159:	88 0a                	mov    %cl,(%edx)
  40415b:	7f ab                	jg     404108 <.text+0x8a8>
  40415d:	39 fb                	cmp    %edi,%ebx
  40415f:	73 43                	jae    4041a4 <.text+0x944>
  404161:	89 75 e4             	mov    %esi,-0x1c(%ebp)
  404164:	89 fe                	mov    %edi,%esi
  404166:	8b 7d 08             	mov    0x8(%ebp),%edi
  404169:	8d b4 26 00 00 00 00 	lea    0x0(%esi,%eiz,1),%esi
  404170:	83 ee 01             	sub    $0x1,%esi
  404173:	0f be 06             	movsbl (%esi),%eax
  404176:	89 fa                	mov    %edi,%edx
  404178:	e8 f3 f8 ff ff       	call   403a70 <.text+0x210>
  40417d:	39 f3                	cmp    %esi,%ebx
  40417f:	72 ef                	jb     404170 <.text+0x910>
  404181:	8b 75 e4             	mov    -0x1c(%ebp),%esi
  404184:	85 f6                	test   %esi,%esi
  404186:	8d 5e ff             	lea    -0x1(%esi),%ebx
  404189:	7e 19                	jle    4041a4 <.text+0x944>
  40418b:	8b 75 08             	mov    0x8(%ebp),%esi
  40418e:	66 90                	xchg   %ax,%ax
  404190:	89 f2                	mov    %esi,%edx
  404192:	b8 20 00 00 00       	mov    $0x20,%eax
  404197:	83 eb 01             	sub    $0x1,%ebx
  40419a:	e8 d1 f8 ff ff       	call   403a70 <.text+0x210>
  40419f:	83 fb ff             	cmp    $0xffffffff,%ebx
  4041a2:	75 ec                	jne    404190 <.text+0x930>
  4041a4:	8d 65 f4             	lea    -0xc(%ebp),%esp
  4041a7:	5b                   	pop    %ebx
  4041a8:	5e                   	pop    %esi
  4041a9:	5f                   	pop    %edi
  4041aa:	5d                   	pop    %ebp
  4041ab:	c3                   	ret    
  4041ac:	8d 74 26 00          	lea    0x0(%esi,%eiz,1),%esi
  4041b0:	83 ee 02             	sub    $0x2,%esi
  4041b3:	85 f6                	test   %esi,%esi
  4041b5:	7e 24                	jle    4041db <.text+0x97b>
  4041b7:	8b 4d d8             	mov    -0x28(%ebp),%ecx
  4041ba:	85 c9                	test   %ecx,%ecx
  4041bc:	79 1d                	jns    4041db <.text+0x97b>
  4041be:	89 c2                	mov    %eax,%edx
  4041c0:	81 e2 00 06 00 00    	and    $0x600,%edx
  4041c6:	81 fa 00 02 00 00    	cmp    $0x200,%edx
  4041cc:	0f 84 ef 00 00 00    	je     4042c1 <.text+0xa61>
  4041d2:	f6 c4 08             	test   $0x8,%ah
  4041d5:	0f 84 2d ff ff ff    	je     404108 <.text+0x8a8>
  4041db:	89 fa                	mov    %edi,%edx
  4041dd:	e9 6a ff ff ff       	jmp    40414c <.text+0x8ec>
  4041e2:	83 7d dc 6f          	cmpl   $0x6f,-0x24(%ebp)
  4041e6:	89 c7                	mov    %eax,%edi
  4041e8:	0f 85 cd fe ff ff    	jne    4040bb <.text+0x85b>
  4041ee:	8b 4d 08             	mov    0x8(%ebp),%ecx
  4041f1:	f6 41 05 08          	testb  $0x8,0x5(%ecx)
  4041f5:	0f 84 c0 fe ff ff    	je     4040bb <.text+0x85b>
  4041fb:	83 c7 01             	add    $0x1,%edi
  4041fe:	c6 00 30             	movb   $0x30,(%eax)
  404201:	e9 b5 fe ff ff       	jmp    4040bb <.text+0x85b>
  404206:	8b 45 08             	mov    0x8(%ebp),%eax
  404209:	8b 40 04             	mov    0x4(%eax),%eax
  40420c:	89 c2                	mov    %eax,%edx
  40420e:	81 e2 00 06 00 00    	and    $0x600,%edx
  404214:	81 fa 00 02 00 00    	cmp    $0x200,%edx
  40421a:	0f 84 a1 00 00 00    	je     4042c1 <.text+0xa61>
  404220:	f6 c4 04             	test   $0x4,%ah
  404223:	75 75                	jne    40429a <.text+0xa3a>
  404225:	8d 46 ff             	lea    -0x1(%esi),%eax
  404228:	89 45 e4             	mov    %eax,-0x1c(%ebp)
  40422b:	8b 75 e4             	mov    -0x1c(%ebp),%esi
  40422e:	89 5d e0             	mov    %ebx,-0x20(%ebp)
  404231:	89 f3                	mov    %esi,%ebx
  404233:	8b 75 08             	mov    0x8(%ebp),%esi
  404236:	8d 76 00             	lea    0x0(%esi),%esi
  404239:	8d bc 27 00 00 00 00 	lea    0x0(%edi,%eiz,1),%edi
  404240:	b8 20 00 00 00       	mov    $0x20,%eax
  404245:	83 eb 01             	sub    $0x1,%ebx
  404248:	89 f2                	mov    %esi,%edx
  40424a:	e8 21 f8 ff ff       	call   403a70 <.text+0x210>
  40424f:	8d 43 01             	lea    0x1(%ebx),%eax
  404252:	85 c0                	test   %eax,%eax
  404254:	7f ea                	jg     404240 <.text+0x9e0>
  404256:	8b 4d e4             	mov    -0x1c(%ebp),%ecx
  404259:	8b 5d e0             	mov    -0x20(%ebp),%ebx
  40425c:	89 c8                	mov    %ecx,%eax
  40425e:	8d 71 ff             	lea    -0x1(%ecx),%esi
  404261:	c1 f8 1f             	sar    $0x1f,%eax
  404264:	f7 d0                	not    %eax
  404266:	21 c8                	and    %ecx,%eax
  404268:	29 c6                	sub    %eax,%esi
  40426a:	39 fb                	cmp    %edi,%ebx
  40426c:	0f 82 ef fe ff ff    	jb     404161 <.text+0x901>
  404272:	e9 0d ff ff ff       	jmp    404184 <.text+0x924>
  404277:	89 f6                	mov    %esi,%esi
  404279:	8d bc 27 00 00 00 00 	lea    0x0(%edi,%eiz,1),%edi
  404280:	8b 45 d8             	mov    -0x28(%ebp),%eax
  404283:	85 c0                	test   %eax,%eax
  404285:	0f 88 7b ff ff ff    	js     404206 <.text+0x9a6>
  40428b:	8d 46 ff             	lea    -0x1(%esi),%eax
  40428e:	89 45 e4             	mov    %eax,-0x1c(%ebp)
  404291:	8b 45 08             	mov    0x8(%ebp),%eax
  404294:	f6 40 05 04          	testb  $0x4,0x5(%eax)
  404298:	74 91                	je     40422b <.text+0x9cb>
  40429a:	39 fb                	cmp    %edi,%ebx
  40429c:	0f 82 bf fe ff ff    	jb     404161 <.text+0x901>
  4042a2:	e9 6e fe ff ff       	jmp    404115 <.text+0x8b5>
  4042a7:	89 f6                	mov    %esi,%esi
  4042a9:	8d bc 27 00 00 00 00 	lea    0x0(%edi,%eiz,1),%edi
  4042b0:	89 e0                	mov    %esp,%eax
  4042b2:	8b 7d 08             	mov    0x8(%ebp),%edi
  4042b5:	81 67 04 ff f7 ff ff 	andl   $0xfffff7ff,0x4(%edi)
  4042bc:	e9 cd fd ff ff       	jmp    40408e <.text+0x82e>
  4042c1:	8d 14 37             	lea    (%edi,%esi,1),%edx
  4042c4:	83 c7 01             	add    $0x1,%edi
  4042c7:	c6 47 ff 30          	movb   $0x30,-0x1(%edi)
  4042cb:	39 fa                	cmp    %edi,%edx
  4042cd:	75 f5                	jne    4042c4 <.text+0xa64>
  4042cf:	83 7d dc 6f          	cmpl   $0x6f,-0x24(%ebp)
  4042d3:	74 0d                	je     4042e2 <.text+0xa82>
  4042d5:	89 c1                	mov    %eax,%ecx
  4042d7:	81 e1 00 08 00 00    	and    $0x800,%ecx
  4042dd:	e9 5f fe ff ff       	jmp    404141 <.text+0x8e1>
  4042e2:	be ff ff ff ff       	mov    $0xffffffff,%esi
  4042e7:	e9 71 fe ff ff       	jmp    40415d <.text+0x8fd>
  4042ec:	39 fb                	cmp    %edi,%ebx
  4042ee:	0f 83 b0 fe ff ff    	jae    4041a4 <.text+0x944>
  4042f4:	be ff ff ff ff       	mov    $0xffffffff,%esi
  4042f9:	89 75 e4             	mov    %esi,-0x1c(%ebp)
  4042fc:	89 fe                	mov    %edi,%esi
  4042fe:	8b 7d 08             	mov    0x8(%ebp),%edi
  404301:	e9 6a fe ff ff       	jmp    404170 <.text+0x910>
  404306:	8d 76 00             	lea    0x0(%esi),%esi
  404309:	8d bc 27 00 00 00 00 	lea    0x0(%edi,%eiz,1),%edi
  404310:	55                   	push   %ebp
  404311:	89 e5                	mov    %esp,%ebp
  404313:	57                   	push   %edi
  404314:	56                   	push   %esi
  404315:	53                   	push   %ebx
  404316:	89 d6                	mov    %edx,%esi
  404318:	89 cb                	mov    %ecx,%ebx
  40431a:	83 ec 3c             	sub    $0x3c,%esp
  40431d:	8b 7d 08             	mov    0x8(%ebp),%edi
  404320:	85 c9                	test   %ecx,%ecx
  404322:	89 45 d4             	mov    %eax,-0x2c(%ebp)
  404325:	8b 47 08             	mov    0x8(%edi),%eax
  404328:	0f 8e 52 01 00 00    	jle    404480 <.text+0xc20>
  40432e:	39 c1                	cmp    %eax,%ecx
  404330:	0f 8d 5a 01 00 00    	jge    404490 <.text+0xc30>
  404336:	29 c8                	sub    %ecx,%eax
  404338:	89 47 08             	mov    %eax,0x8(%edi)
  40433b:	8b 57 0c             	mov    0xc(%edi),%edx
  40433e:	39 c2                	cmp    %eax,%edx
  404340:	0f 8d 4a 01 00 00    	jge    404490 <.text+0xc30>
  404346:	29 d0                	sub    %edx,%eax
  404348:	85 d2                	test   %edx,%edx
  40434a:	89 47 08             	mov    %eax,0x8(%edi)
  40434d:	0f 8e ae 02 00 00    	jle    404601 <.text+0xda1>
  404353:	83 e8 01             	sub    $0x1,%eax
  404356:	85 c0                	test   %eax,%eax
  404358:	89 47 08             	mov    %eax,0x8(%edi)
  40435b:	0f 84 36 01 00 00    	je     404497 <.text+0xc37>
  404361:	8b 55 d4             	mov    -0x2c(%ebp),%edx
  404364:	85 d2                	test   %edx,%edx
  404366:	75 0f                	jne    404377 <.text+0xb17>
  404368:	8b 57 04             	mov    0x4(%edi),%edx
  40436b:	f7 c2 c0 01 00 00    	test   $0x1c0,%edx
  404371:	0f 84 79 02 00 00    	je     4045f0 <.text+0xd90>
  404377:	83 e8 01             	sub    $0x1,%eax
  40437a:	85 c0                	test   %eax,%eax
  40437c:	89 47 08             	mov    %eax,0x8(%edi)
  40437f:	0f 84 12 01 00 00    	je     404497 <.text+0xc37>
  404385:	f7 47 04 00 06 00 00 	testl  $0x600,0x4(%edi)
  40438c:	0f 85 05 01 00 00    	jne    404497 <.text+0xc37>
  404392:	83 e8 01             	sub    $0x1,%eax
  404395:	89 47 08             	mov    %eax,0x8(%edi)
  404398:	90                   	nop
  404399:	8d b4 26 00 00 00 00 	lea    0x0(%esi,%eiz,1),%esi
  4043a0:	89 fa                	mov    %edi,%edx
  4043a2:	b8 20 00 00 00       	mov    $0x20,%eax
  4043a7:	e8 c4 f6 ff ff       	call   403a70 <.text+0x210>
  4043ac:	8b 47 08             	mov    0x8(%edi),%eax
  4043af:	8d 50 ff             	lea    -0x1(%eax),%edx
  4043b2:	85 c0                	test   %eax,%eax
  4043b4:	89 57 08             	mov    %edx,0x8(%edi)
  4043b7:	7f e7                	jg     4043a0 <.text+0xb40>
  4043b9:	8b 4d d4             	mov    -0x2c(%ebp),%ecx
  4043bc:	85 c9                	test   %ecx,%ecx
  4043be:	0f 84 de 00 00 00    	je     4044a2 <.text+0xc42>
  4043c4:	89 fa                	mov    %edi,%edx
  4043c6:	b8 2d 00 00 00       	mov    $0x2d,%eax
  4043cb:	e8 a0 f6 ff ff       	call   403a70 <.text+0x210>
  4043d0:	8b 57 08             	mov    0x8(%edi),%edx
  4043d3:	85 d2                	test   %edx,%edx
  4043d5:	7e 13                	jle    4043ea <.text+0xb8a>
  4043d7:	8b 47 04             	mov    0x4(%edi),%eax
  4043da:	25 00 06 00 00       	and    $0x600,%eax
  4043df:	3d 00 02 00 00       	cmp    $0x200,%eax
  4043e4:	0f 84 b7 01 00 00    	je     4045a1 <.text+0xd41>
  4043ea:	85 db                	test   %ebx,%ebx
  4043ec:	0f 8e df 01 00 00    	jle    4045d1 <.text+0xd71>
  4043f2:	0f b6 16             	movzbl (%esi),%edx
  4043f5:	b8 30 00 00 00       	mov    $0x30,%eax
  4043fa:	84 d2                	test   %dl,%dl
  4043fc:	74 06                	je     404404 <.text+0xba4>
  4043fe:	83 c6 01             	add    $0x1,%esi
  404401:	0f be c2             	movsbl %dl,%eax
  404404:	89 fa                	mov    %edi,%edx
  404406:	e8 65 f6 ff ff       	call   403a70 <.text+0x210>
  40440b:	83 eb 01             	sub    $0x1,%ebx
  40440e:	75 e2                	jne    4043f2 <.text+0xb92>
  404410:	8b 47 0c             	mov    0xc(%edi),%eax
  404413:	85 c0                	test   %eax,%eax
  404415:	0f 8e 55 01 00 00    	jle    404570 <.text+0xd10>
  40441b:	83 7f 10 fd          	cmpl   $0xfffffffd,0x10(%edi)
  40441f:	0f 84 eb 01 00 00    	je     404610 <.text+0xdb0>
  404425:	0f b7 57 14          	movzwl 0x14(%edi),%edx
  404429:	66 85 d2             	test   %dx,%dx
  40442c:	0f 85 9e 00 00 00    	jne    4044d0 <.text+0xc70>
  404432:	89 fa                	mov    %edi,%edx
  404434:	b8 2e 00 00 00       	mov    $0x2e,%eax
  404439:	e8 32 f6 ff ff       	call   403a70 <.text+0x210>
  40443e:	85 db                	test   %ebx,%ebx
  404440:	74 27                	je     404469 <.text+0xc09>
  404442:	e9 fc 00 00 00       	jmp    404543 <.text+0xce3>
  404447:	89 f6                	mov    %esi,%esi
  404449:	8d bc 27 00 00 00 00 	lea    0x0(%edi,%eiz,1),%edi
  404450:	0f b6 16             	movzbl (%esi),%edx
  404453:	b8 30 00 00 00       	mov    $0x30,%eax
  404458:	84 d2                	test   %dl,%dl
  40445a:	74 06                	je     404462 <.text+0xc02>
  40445c:	83 c6 01             	add    $0x1,%esi
  40445f:	0f be c2             	movsbl %dl,%eax
  404462:	89 fa                	mov    %edi,%edx
  404464:	e8 07 f6 ff ff       	call   403a70 <.text+0x210>
  404469:	8b 47 0c             	mov    0xc(%edi),%eax
  40446c:	8d 50 ff             	lea    -0x1(%eax),%edx
  40446f:	85 c0                	test   %eax,%eax
  404471:	89 57 0c             	mov    %edx,0xc(%edi)
  404474:	7f da                	jg     404450 <.text+0xbf0>
  404476:	8d 65 f4             	lea    -0xc(%ebp),%esp
  404479:	5b                   	pop    %ebx
  40447a:	5e                   	pop    %esi
  40447b:	5f                   	pop    %edi
  40447c:	5d                   	pop    %ebp
  40447d:	c3                   	ret    
  40447e:	66 90                	xchg   %ax,%ax
  404480:	83 f8 00             	cmp    $0x0,%eax
  404483:	0f 8f 59 01 00 00    	jg     4045e2 <.text+0xd82>
  404489:	0f 8d ac fe ff ff    	jge    40433b <.text+0xadb>
  40448f:	90                   	nop
  404490:	c7 47 08 ff ff ff ff 	movl   $0xffffffff,0x8(%edi)
  404497:	8b 4d d4             	mov    -0x2c(%ebp),%ecx
  40449a:	85 c9                	test   %ecx,%ecx
  40449c:	0f 85 22 ff ff ff    	jne    4043c4 <.text+0xb64>
  4044a2:	8b 57 04             	mov    0x4(%edi),%edx
  4044a5:	f6 c6 01             	test   $0x1,%dh
  4044a8:	0f 85 e2 00 00 00    	jne    404590 <.text+0xd30>
  4044ae:	83 e2 40             	and    $0x40,%edx
  4044b1:	0f 84 19 ff ff ff    	je     4043d0 <.text+0xb70>
  4044b7:	89 fa                	mov    %edi,%edx
  4044b9:	b8 20 00 00 00       	mov    $0x20,%eax
  4044be:	e8 ad f5 ff ff       	call   403a70 <.text+0x210>
  4044c3:	e9 08 ff ff ff       	jmp    4043d0 <.text+0xb70>
  4044c8:	90                   	nop
  4044c9:	8d b4 26 00 00 00 00 	lea    0x0(%esi,%eiz,1),%esi
  4044d0:	8b 47 10             	mov    0x10(%edi),%eax
  4044d3:	89 65 d4             	mov    %esp,-0x2c(%ebp)
  4044d6:	83 c0 0f             	add    $0xf,%eax
  4044d9:	c1 e8 04             	shr    $0x4,%eax
  4044dc:	c1 e0 04             	shl    $0x4,%eax
  4044df:	e8 1c dd ff ff       	call   402200 <___chkstk_ms>
  4044e4:	29 c4                	sub    %eax,%esp
  4044e6:	8d 45 e4             	lea    -0x1c(%ebp),%eax
  4044e9:	c7 45 e4 00 00 00 00 	movl   $0x0,-0x1c(%ebp)
  4044f0:	8d 4c 24 10          	lea    0x10(%esp),%ecx
  4044f4:	89 54 24 04          	mov    %edx,0x4(%esp)
  4044f8:	89 44 24 08          	mov    %eax,0x8(%esp)
  4044fc:	89 0c 24             	mov    %ecx,(%esp)
  4044ff:	89 4d d0             	mov    %ecx,-0x30(%ebp)
  404502:	e8 49 21 00 00       	call   406650 <_wcrtomb>
  404507:	85 c0                	test   %eax,%eax
  404509:	0f 8e 41 01 00 00    	jle    404650 <.text+0xdf0>
  40450f:	8b 4d d0             	mov    -0x30(%ebp),%ecx
  404512:	89 5d cc             	mov    %ebx,-0x34(%ebp)
  404515:	89 75 d0             	mov    %esi,-0x30(%ebp)
  404518:	01 c8                	add    %ecx,%eax
  40451a:	89 cb                	mov    %ecx,%ebx
  40451c:	89 c6                	mov    %eax,%esi
  40451e:	66 90                	xchg   %ax,%ax
  404520:	83 c3 01             	add    $0x1,%ebx
  404523:	0f be 43 ff          	movsbl -0x1(%ebx),%eax
  404527:	89 fa                	mov    %edi,%edx
  404529:	e8 42 f5 ff ff       	call   403a70 <.text+0x210>
  40452e:	39 de                	cmp    %ebx,%esi
  404530:	75 ee                	jne    404520 <.text+0xcc0>
  404532:	8b 75 d0             	mov    -0x30(%ebp),%esi
  404535:	8b 5d cc             	mov    -0x34(%ebp),%ebx
  404538:	85 db                	test   %ebx,%ebx
  40453a:	8b 65 d4             	mov    -0x2c(%ebp),%esp
  40453d:	0f 84 26 ff ff ff    	je     404469 <.text+0xc09>
  404543:	8b 47 0c             	mov    0xc(%edi),%eax
  404546:	01 d8                	add    %ebx,%eax
  404548:	89 47 0c             	mov    %eax,0xc(%edi)
  40454b:	90                   	nop
  40454c:	8d 74 26 00          	lea    0x0(%esi,%eiz,1),%esi
  404550:	89 fa                	mov    %edi,%edx
  404552:	b8 30 00 00 00       	mov    $0x30,%eax
  404557:	e8 14 f5 ff ff       	call   403a70 <.text+0x210>
  40455c:	83 c3 01             	add    $0x1,%ebx
  40455f:	75 ef                	jne    404550 <.text+0xcf0>
  404561:	e9 03 ff ff ff       	jmp    404469 <.text+0xc09>
  404566:	8d 76 00             	lea    0x0(%esi),%esi
  404569:	8d bc 27 00 00 00 00 	lea    0x0(%edi,%eiz,1),%edi
  404570:	f6 47 05 08          	testb  $0x8,0x5(%edi)
  404574:	0f 85 a1 fe ff ff    	jne    40441b <.text+0xbbb>
  40457a:	85 db                	test   %ebx,%ebx
  40457c:	75 c8                	jne    404546 <.text+0xce6>
  40457e:	83 e8 01             	sub    $0x1,%eax
  404581:	89 47 0c             	mov    %eax,0xc(%edi)
  404584:	e9 ed fe ff ff       	jmp    404476 <.text+0xc16>
  404589:	8d b4 26 00 00 00 00 	lea    0x0(%esi,%eiz,1),%esi
  404590:	89 fa                	mov    %edi,%edx
  404592:	b8 2b 00 00 00       	mov    $0x2b,%eax
  404597:	e8 d4 f4 ff ff       	call   403a70 <.text+0x210>
  40459c:	e9 2f fe ff ff       	jmp    4043d0 <.text+0xb70>
  4045a1:	83 ea 01             	sub    $0x1,%edx
  4045a4:	89 57 08             	mov    %edx,0x8(%edi)
  4045a7:	89 f6                	mov    %esi,%esi
  4045a9:	8d bc 27 00 00 00 00 	lea    0x0(%edi,%eiz,1),%edi
  4045b0:	89 fa                	mov    %edi,%edx
  4045b2:	b8 30 00 00 00       	mov    $0x30,%eax
  4045b7:	e8 b4 f4 ff ff       	call   403a70 <.text+0x210>
  4045bc:	8b 47 08             	mov    0x8(%edi),%eax
  4045bf:	8d 50 ff             	lea    -0x1(%eax),%edx
  4045c2:	85 c0                	test   %eax,%eax
  4045c4:	89 57 08             	mov    %edx,0x8(%edi)
  4045c7:	7f e7                	jg     4045b0 <.text+0xd50>
  4045c9:	85 db                	test   %ebx,%ebx
  4045cb:	0f 8f 21 fe ff ff    	jg     4043f2 <.text+0xb92>
  4045d1:	89 fa                	mov    %edi,%edx
  4045d3:	b8 30 00 00 00       	mov    $0x30,%eax
  4045d8:	e8 93 f4 ff ff       	call   403a70 <.text+0x210>
  4045dd:	e9 2e fe ff ff       	jmp    404410 <.text+0xbb0>
  4045e2:	83 e8 01             	sub    $0x1,%eax
  4045e5:	89 47 08             	mov    %eax,0x8(%edi)
  4045e8:	e9 4e fd ff ff       	jmp    40433b <.text+0xadb>
  4045ed:	8d 76 00             	lea    0x0(%esi),%esi
  4045f0:	f6 c6 06             	test   $0x6,%dh
  4045f3:	8b 47 08             	mov    0x8(%edi),%eax
  4045f6:	0f 85 a9 fe ff ff    	jne    4044a5 <.text+0xc45>
  4045fc:	e9 91 fd ff ff       	jmp    404392 <.text+0xb32>
  404601:	f6 47 05 08          	testb  $0x8,0x5(%edi)
  404605:	0f 84 56 fd ff ff    	je     404361 <.text+0xb01>
  40460b:	e9 43 fd ff ff       	jmp    404353 <.text+0xaf3>
  404610:	c7 45 e4 00 00 00 00 	movl   $0x0,-0x1c(%ebp)
  404617:	e8 3c 48 00 00       	call   408e58 <_localeconv>
  40461c:	8d 55 e4             	lea    -0x1c(%ebp),%edx
  40461f:	c7 44 24 08 10 00 00 	movl   $0x10,0x8(%esp)
  404626:	00 
  404627:	89 54 24 0c          	mov    %edx,0xc(%esp)
  40462b:	8b 00                	mov    (%eax),%eax
  40462d:	89 44 24 04          	mov    %eax,0x4(%esp)
  404631:	8d 45 e2             	lea    -0x1e(%ebp),%eax
  404634:	89 04 24             	mov    %eax,(%esp)
  404637:	e8 b4 1c 00 00       	call   4062f0 <_mbrtowc>
  40463c:	85 c0                	test   %eax,%eax
  40463e:	7e 21                	jle    404661 <.text+0xe01>
  404640:	0f b7 55 e2          	movzwl -0x1e(%ebp),%edx
  404644:	66 89 57 14          	mov    %dx,0x14(%edi)
  404648:	89 47 10             	mov    %eax,0x10(%edi)
  40464b:	e9 d9 fd ff ff       	jmp    404429 <.text+0xbc9>
  404650:	89 fa                	mov    %edi,%edx
  404652:	b8 2e 00 00 00       	mov    $0x2e,%eax
  404657:	e8 14 f4 ff ff       	call   403a70 <.text+0x210>
  40465c:	e9 d7 fe ff ff       	jmp    404538 <.text+0xcd8>
  404661:	0f b7 57 14          	movzwl 0x14(%edi),%edx
  404665:	eb e1                	jmp    404648 <.text+0xde8>
  404667:	89 f6                	mov    %esi,%esi
  404669:	8d bc 27 00 00 00 00 	lea    0x0(%edi,%eiz,1),%edi
  404670:	55                   	push   %ebp
  404671:	57                   	push   %edi
  404672:	89 d7                	mov    %edx,%edi
  404674:	56                   	push   %esi
  404675:	53                   	push   %ebx
  404676:	8d 59 ff             	lea    -0x1(%ecx),%ebx
  404679:	b9 67 66 66 66       	mov    $0x66666667,%ecx
  40467e:	83 ec 2c             	sub    $0x2c,%esp
  404681:	89 44 24 14          	mov    %eax,0x14(%esp)
  404685:	89 d8                	mov    %ebx,%eax
  404687:	89 5c 24 18          	mov    %ebx,0x18(%esp)
  40468b:	c1 f8 1f             	sar    $0x1f,%eax
  40468e:	8b 74 24 40          	mov    0x40(%esp),%esi
  404692:	89 44 24 1c          	mov    %eax,0x1c(%esp)
  404696:	89 d8                	mov    %ebx,%eax
  404698:	c1 fb 1f             	sar    $0x1f,%ebx
  40469b:	f7 e9                	imul   %ecx
  40469d:	89 d1                	mov    %edx,%ecx
  40469f:	c1 f9 02             	sar    $0x2,%ecx
  4046a2:	29 d9                	sub    %ebx,%ecx
  4046a4:	bb 01 00 00 00       	mov    $0x1,%ebx
  4046a9:	74 18                	je     4046c3 <.text+0xe63>
  4046ab:	bd 67 66 66 66       	mov    $0x66666667,%ebp
  4046b0:	89 c8                	mov    %ecx,%eax
  4046b2:	c1 f9 1f             	sar    $0x1f,%ecx
  4046b5:	83 c3 01             	add    $0x1,%ebx
  4046b8:	f7 ed                	imul   %ebp
  4046ba:	c1 fa 02             	sar    $0x2,%edx
  4046bd:	29 ca                	sub    %ecx,%edx
  4046bf:	89 d1                	mov    %edx,%ecx
  4046c1:	75 ed                	jne    4046b0 <.text+0xe50>
  4046c3:	8b 6e 20             	mov    0x20(%esi),%ebp
  4046c6:	39 dd                	cmp    %ebx,%ebp
  4046c8:	7d 02                	jge    4046cc <.text+0xe6c>
  4046ca:	89 dd                	mov    %ebx,%ebp
  4046cc:	8b 46 08             	mov    0x8(%esi),%eax
  4046cf:	8d 55 02             	lea    0x2(%ebp),%edx
  4046d2:	39 d0                	cmp    %edx,%eax
  4046d4:	7f 5a                	jg     404730 <.text+0xed0>
  4046d6:	c7 46 08 ff ff ff ff 	movl   $0xffffffff,0x8(%esi)
  4046dd:	8b 44 24 14          	mov    0x14(%esp),%eax
  4046e1:	89 34 24             	mov    %esi,(%esp)
  4046e4:	b9 01 00 00 00       	mov    $0x1,%ecx
  4046e9:	89 fa                	mov    %edi,%edx
  4046eb:	83 c5 01             	add    $0x1,%ebp
  4046ee:	e8 1d fc ff ff       	call   404310 <.text+0xab0>
  4046f3:	8b 46 20             	mov    0x20(%esi),%eax
  4046f6:	89 46 0c             	mov    %eax,0xc(%esi)
  4046f9:	8b 46 04             	mov    0x4(%esi),%eax
  4046fc:	89 c2                	mov    %eax,%edx
  4046fe:	83 e0 20             	and    $0x20,%eax
  404701:	81 ca c0 01 00 00    	or     $0x1c0,%edx
  404707:	83 c8 45             	or     $0x45,%eax
  40470a:	89 56 04             	mov    %edx,0x4(%esi)
  40470d:	89 f2                	mov    %esi,%edx
  40470f:	e8 5c f3 ff ff       	call   403a70 <.text+0x210>
  404714:	01 6e 08             	add    %ebp,0x8(%esi)
  404717:	8b 44 24 18          	mov    0x18(%esp),%eax
  40471b:	89 f1                	mov    %esi,%ecx
  40471d:	8b 54 24 1c          	mov    0x1c(%esp),%edx
  404721:	e8 4a f6 ff ff       	call   403d70 <.text+0x510>
  404726:	83 c4 2c             	add    $0x2c,%esp
  404729:	5b                   	pop    %ebx
  40472a:	5e                   	pop    %esi
  40472b:	5f                   	pop    %edi
  40472c:	5d                   	pop    %ebp
  40472d:	c3                   	ret    
  40472e:	66 90                	xchg   %ax,%ax
  404730:	29 d0                	sub    %edx,%eax
  404732:	89 46 08             	mov    %eax,0x8(%esi)
  404735:	eb a6                	jmp    4046dd <.text+0xe7d>
  404737:	89 f6                	mov    %esi,%esi
  404739:	8d bc 27 00 00 00 00 	lea    0x0(%edi,%eiz,1),%edi
  404740:	56                   	push   %esi
  404741:	53                   	push   %ebx
  404742:	89 c3                	mov    %eax,%ebx
  404744:	83 ec 44             	sub    $0x44,%esp
  404747:	8b 40 0c             	mov    0xc(%eax),%eax
  40474a:	85 c0                	test   %eax,%eax
  40474c:	78 72                	js     4047c0 <.text+0xf60>
  40474e:	83 c0 01             	add    $0x1,%eax
  404751:	db 6c 24 50          	fldt   0x50(%esp)
  404755:	89 44 24 10          	mov    %eax,0x10(%esp)
  404759:	8d 54 24 28          	lea    0x28(%esp),%edx
  40475d:	89 54 24 18          	mov    %edx,0x18(%esp)
  404761:	8d 54 24 2c          	lea    0x2c(%esp),%edx
  404765:	89 54 24 14          	mov    %edx,0x14(%esp)
  404769:	db 7c 24 30          	fstpt  0x30(%esp)
  40476d:	8b 44 24 30          	mov    0x30(%esp),%eax
  404771:	89 04 24             	mov    %eax,(%esp)
  404774:	8b 44 24 34          	mov    0x34(%esp),%eax
  404778:	89 44 24 04          	mov    %eax,0x4(%esp)
  40477c:	8b 44 24 38          	mov    0x38(%esp),%eax
  404780:	89 44 24 08          	mov    %eax,0x8(%esp)
  404784:	8b 44 24 3c          	mov    0x3c(%esp),%eax
  404788:	89 44 24 0c          	mov    %eax,0xc(%esp)
  40478c:	b8 02 00 00 00       	mov    $0x2,%eax
  404791:	e8 ca f1 ff ff       	call   403960 <.text+0x100>
  404796:	8b 4c 24 2c          	mov    0x2c(%esp),%ecx
  40479a:	89 c6                	mov    %eax,%esi
  40479c:	81 f9 00 80 ff ff    	cmp    $0xffff8000,%ecx
  4047a2:	74 2c                	je     4047d0 <.text+0xf70>
  4047a4:	89 c2                	mov    %eax,%edx
  4047a6:	8b 44 24 28          	mov    0x28(%esp),%eax
  4047aa:	89 1c 24             	mov    %ebx,(%esp)
  4047ad:	e8 be fe ff ff       	call   404670 <.text+0xe10>
  4047b2:	89 34 24             	mov    %esi,(%esp)
  4047b5:	e8 56 38 00 00       	call   408010 <___freedtoa>
  4047ba:	83 c4 44             	add    $0x44,%esp
  4047bd:	5b                   	pop    %ebx
  4047be:	5e                   	pop    %esi
  4047bf:	c3                   	ret    
  4047c0:	c7 43 0c 06 00 00 00 	movl   $0x6,0xc(%ebx)
  4047c7:	b8 07 00 00 00       	mov    $0x7,%eax
  4047cc:	eb 83                	jmp    404751 <.text+0xef1>
  4047ce:	66 90                	xchg   %ax,%ax
  4047d0:	89 c2                	mov    %eax,%edx
  4047d2:	8b 44 24 28          	mov    0x28(%esp),%eax
  4047d6:	89 d9                	mov    %ebx,%ecx
  4047d8:	e8 f3 f4 ff ff       	call   403cd0 <.text+0x470>
  4047dd:	89 34 24             	mov    %esi,(%esp)
  4047e0:	e8 2b 38 00 00       	call   408010 <___freedtoa>
  4047e5:	83 c4 44             	add    $0x44,%esp
  4047e8:	5b                   	pop    %ebx
  4047e9:	5e                   	pop    %esi
  4047ea:	c3                   	ret    
  4047eb:	90                   	nop
  4047ec:	8d 74 26 00          	lea    0x0(%esi,%eiz,1),%esi
  4047f0:	56                   	push   %esi
  4047f1:	53                   	push   %ebx
  4047f2:	89 c3                	mov    %eax,%ebx
  4047f4:	83 ec 44             	sub    $0x44,%esp
  4047f7:	8b 40 0c             	mov    0xc(%eax),%eax
  4047fa:	85 c0                	test   %eax,%eax
  4047fc:	0f 88 8e 00 00 00    	js     404890 <.text+0x1030>
  404802:	db 6c 24 50          	fldt   0x50(%esp)
  404806:	89 44 24 10          	mov    %eax,0x10(%esp)
  40480a:	8d 54 24 28          	lea    0x28(%esp),%edx
  40480e:	89 54 24 18          	mov    %edx,0x18(%esp)
  404812:	8d 54 24 2c          	lea    0x2c(%esp),%edx
  404816:	89 54 24 14          	mov    %edx,0x14(%esp)
  40481a:	db 7c 24 30          	fstpt  0x30(%esp)
  40481e:	8b 44 24 30          	mov    0x30(%esp),%eax
  404822:	89 04 24             	mov    %eax,(%esp)
  404825:	8b 44 24 34          	mov    0x34(%esp),%eax
  404829:	89 44 24 04          	mov    %eax,0x4(%esp)
  40482d:	8b 44 24 38          	mov    0x38(%esp),%eax
  404831:	89 44 24 08          	mov    %eax,0x8(%esp)
  404835:	8b 44 24 3c          	mov    0x3c(%esp),%eax
  404839:	89 44 24 0c          	mov    %eax,0xc(%esp)
  40483d:	b8 03 00 00 00       	mov    $0x3,%eax
  404842:	e8 19 f1 ff ff       	call   403960 <.text+0x100>
  404847:	8b 4c 24 2c          	mov    0x2c(%esp),%ecx
  40484b:	89 c6                	mov    %eax,%esi
  40484d:	81 f9 00 80 ff ff    	cmp    $0xffff8000,%ecx
  404853:	74 4c                	je     4048a1 <.text+0x1041>
  404855:	89 c2                	mov    %eax,%edx
  404857:	8b 44 24 28          	mov    0x28(%esp),%eax
  40485b:	89 1c 24             	mov    %ebx,(%esp)
  40485e:	e8 ad fa ff ff       	call   404310 <.text+0xab0>
  404863:	eb 0c                	jmp    404871 <.text+0x1011>
  404865:	89 da                	mov    %ebx,%edx
  404867:	b8 20 00 00 00       	mov    $0x20,%eax
  40486c:	e8 ff f1 ff ff       	call   403a70 <.text+0x210>
  404871:	8b 43 08             	mov    0x8(%ebx),%eax
  404874:	8d 50 ff             	lea    -0x1(%eax),%edx
  404877:	85 c0                	test   %eax,%eax
  404879:	89 53 08             	mov    %edx,0x8(%ebx)
  40487c:	7f e7                	jg     404865 <.text+0x1005>
  40487e:	89 34 24             	mov    %esi,(%esp)
  404881:	e8 8a 37 00 00       	call   408010 <___freedtoa>
  404886:	83 c4 44             	add    $0x44,%esp
  404889:	5b                   	pop    %ebx
  40488a:	5e                   	pop    %esi
  40488b:	c3                   	ret    
  40488c:	8d 74 26 00          	lea    0x0(%esi,%eiz,1),%esi
  404890:	c7 43 0c 06 00 00 00 	movl   $0x6,0xc(%ebx)
  404897:	b8 06 00 00 00       	mov    $0x6,%eax
  40489c:	e9 61 ff ff ff       	jmp    404802 <.text+0xfa2>
  4048a1:	89 c2                	mov    %eax,%edx
  4048a3:	8b 44 24 28          	mov    0x28(%esp),%eax
  4048a7:	89 d9                	mov    %ebx,%ecx
  4048a9:	e8 22 f4 ff ff       	call   403cd0 <.text+0x470>
  4048ae:	89 34 24             	mov    %esi,(%esp)
  4048b1:	e8 5a 37 00 00       	call   408010 <___freedtoa>
  4048b6:	83 c4 44             	add    $0x44,%esp
  4048b9:	5b                   	pop    %ebx
  4048ba:	5e                   	pop    %esi
  4048bb:	c3                   	ret    
  4048bc:	8d 74 26 00          	lea    0x0(%esi,%eiz,1),%esi
  4048c0:	57                   	push   %edi
  4048c1:	56                   	push   %esi
  4048c2:	53                   	push   %ebx
  4048c3:	89 c3                	mov    %eax,%ebx
  4048c5:	83 ec 40             	sub    $0x40,%esp
  4048c8:	8b 40 0c             	mov    0xc(%eax),%eax
  4048cb:	85 c0                	test   %eax,%eax
  4048cd:	0f 88 1d 01 00 00    	js     4049f0 <.text+0x1190>
  4048d3:	0f 84 fa 00 00 00    	je     4049d3 <.text+0x1173>
  4048d9:	db 6c 24 50          	fldt   0x50(%esp)
  4048dd:	89 44 24 10          	mov    %eax,0x10(%esp)
  4048e1:	8d 54 24 28          	lea    0x28(%esp),%edx
  4048e5:	89 54 24 18          	mov    %edx,0x18(%esp)
  4048e9:	8d 54 24 2c          	lea    0x2c(%esp),%edx
  4048ed:	89 54 24 14          	mov    %edx,0x14(%esp)
  4048f1:	db 7c 24 30          	fstpt  0x30(%esp)
  4048f5:	8b 44 24 30          	mov    0x30(%esp),%eax
  4048f9:	89 04 24             	mov    %eax,(%esp)
  4048fc:	8b 44 24 34          	mov    0x34(%esp),%eax
  404900:	89 44 24 04          	mov    %eax,0x4(%esp)
  404904:	8b 44 24 38          	mov    0x38(%esp),%eax
  404908:	89 44 24 08          	mov    %eax,0x8(%esp)
  40490c:	8b 44 24 3c          	mov    0x3c(%esp),%eax
  404910:	89 44 24 0c          	mov    %eax,0xc(%esp)
  404914:	b8 02 00 00 00       	mov    $0x2,%eax
  404919:	e8 42 f0 ff ff       	call   403960 <.text+0x100>
  40491e:	8b 7c 24 2c          	mov    0x2c(%esp),%edi
  404922:	89 c6                	mov    %eax,%esi
  404924:	81 ff 00 80 ff ff    	cmp    $0xffff8000,%edi
  40492a:	0f 84 e0 00 00 00    	je     404a10 <.text+0x11b0>
  404930:	83 ff fd             	cmp    $0xfffffffd,%edi
  404933:	7c 6b                	jl     4049a0 <.text+0x1140>
  404935:	8b 43 0c             	mov    0xc(%ebx),%eax
  404938:	39 c7                	cmp    %eax,%edi
  40493a:	7f 64                	jg     4049a0 <.text+0x1140>
  40493c:	f6 43 05 08          	testb  $0x8,0x5(%ebx)
  404940:	0f 85 bb 00 00 00    	jne    404a01 <.text+0x11a1>
  404946:	89 34 24             	mov    %esi,(%esp)
  404949:	e8 c2 44 00 00       	call   408e10 <_strlen>
  40494e:	29 f8                	sub    %edi,%eax
  404950:	85 c0                	test   %eax,%eax
  404952:	89 43 0c             	mov    %eax,0xc(%ebx)
  404955:	0f 88 c5 00 00 00    	js     404a20 <.text+0x11c0>
  40495b:	8b 44 24 28          	mov    0x28(%esp),%eax
  40495f:	89 1c 24             	mov    %ebx,(%esp)
  404962:	89 f9                	mov    %edi,%ecx
  404964:	89 f2                	mov    %esi,%edx
  404966:	e8 a5 f9 ff ff       	call   404310 <.text+0xab0>
  40496b:	eb 0f                	jmp    40497c <.text+0x111c>
  40496d:	8d 76 00             	lea    0x0(%esi),%esi
  404970:	89 da                	mov    %ebx,%edx
  404972:	b8 20 00 00 00       	mov    $0x20,%eax
  404977:	e8 f4 f0 ff ff       	call   403a70 <.text+0x210>
  40497c:	8b 43 08             	mov    0x8(%ebx),%eax
  40497f:	8d 50 ff             	lea    -0x1(%eax),%edx
  404982:	85 c0                	test   %eax,%eax
  404984:	89 53 08             	mov    %edx,0x8(%ebx)
  404987:	7f e7                	jg     404970 <.text+0x1110>
  404989:	89 34 24             	mov    %esi,(%esp)
  40498c:	e8 7f 36 00 00       	call   408010 <___freedtoa>
  404991:	83 c4 40             	add    $0x40,%esp
  404994:	5b                   	pop    %ebx
  404995:	5e                   	pop    %esi
  404996:	5f                   	pop    %edi
  404997:	c3                   	ret    
  404998:	90                   	nop
  404999:	8d b4 26 00 00 00 00 	lea    0x0(%esi,%eiz,1),%esi
  4049a0:	f6 43 05 08          	testb  $0x8,0x5(%ebx)
  4049a4:	75 3e                	jne    4049e4 <.text+0x1184>
  4049a6:	89 34 24             	mov    %esi,(%esp)
  4049a9:	e8 62 44 00 00       	call   408e10 <_strlen>
  4049ae:	83 e8 01             	sub    $0x1,%eax
  4049b1:	89 43 0c             	mov    %eax,0xc(%ebx)
  4049b4:	8b 44 24 28          	mov    0x28(%esp),%eax
  4049b8:	89 1c 24             	mov    %ebx,(%esp)
  4049bb:	89 f9                	mov    %edi,%ecx
  4049bd:	89 f2                	mov    %esi,%edx
  4049bf:	e8 ac fc ff ff       	call   404670 <.text+0xe10>
  4049c4:	89 34 24             	mov    %esi,(%esp)
  4049c7:	e8 44 36 00 00       	call   408010 <___freedtoa>
  4049cc:	83 c4 40             	add    $0x40,%esp
  4049cf:	5b                   	pop    %ebx
  4049d0:	5e                   	pop    %esi
  4049d1:	5f                   	pop    %edi
  4049d2:	c3                   	ret    
  4049d3:	c7 43 0c 01 00 00 00 	movl   $0x1,0xc(%ebx)
  4049da:	b8 01 00 00 00       	mov    $0x1,%eax
  4049df:	e9 f5 fe ff ff       	jmp    4048d9 <.text+0x1079>
  4049e4:	83 6b 0c 01          	subl   $0x1,0xc(%ebx)
  4049e8:	eb ca                	jmp    4049b4 <.text+0x1154>
  4049ea:	8d b6 00 00 00 00    	lea    0x0(%esi),%esi
  4049f0:	c7 43 0c 06 00 00 00 	movl   $0x6,0xc(%ebx)
  4049f7:	b8 06 00 00 00       	mov    $0x6,%eax
  4049fc:	e9 d8 fe ff ff       	jmp    4048d9 <.text+0x1079>
  404a01:	29 f8                	sub    %edi,%eax
  404a03:	89 43 0c             	mov    %eax,0xc(%ebx)
  404a06:	e9 50 ff ff ff       	jmp    40495b <.text+0x10fb>
  404a0b:	90                   	nop
  404a0c:	8d 74 26 00          	lea    0x0(%esi,%eiz,1),%esi
  404a10:	89 c2                	mov    %eax,%edx
  404a12:	8b 44 24 28          	mov    0x28(%esp),%eax
  404a16:	89 d9                	mov    %ebx,%ecx
  404a18:	e8 b3 f2 ff ff       	call   403cd0 <.text+0x470>
  404a1d:	eb a5                	jmp    4049c4 <.text+0x1164>
  404a1f:	90                   	nop
  404a20:	8b 53 08             	mov    0x8(%ebx),%edx
  404a23:	85 d2                	test   %edx,%edx
  404a25:	0f 8e 30 ff ff ff    	jle    40495b <.text+0x10fb>
  404a2b:	01 d0                	add    %edx,%eax
  404a2d:	89 43 08             	mov    %eax,0x8(%ebx)
  404a30:	e9 26 ff ff ff       	jmp    40495b <.text+0x10fb>
  404a35:	8d 74 26 00          	lea    0x0(%esi,%eiz,1),%esi
  404a39:	8d bc 27 00 00 00 00 	lea    0x0(%edi,%eiz,1),%edi
  404a40:	56                   	push   %esi
  404a41:	53                   	push   %ebx
  404a42:	8b 18                	mov    (%eax),%ebx
  404a44:	0f be 0b             	movsbl (%ebx),%ecx
  404a47:	89 ca                	mov    %ecx,%edx
  404a49:	83 e9 30             	sub    $0x30,%ecx
  404a4c:	83 f9 09             	cmp    $0x9,%ecx
  404a4f:	76 0f                	jbe    404a60 <.text+0x1200>
  404a51:	89 d0                	mov    %edx,%eax
  404a53:	31 d2                	xor    %edx,%edx
  404a55:	3c 24                	cmp    $0x24,%al
  404a57:	74 47                	je     404aa0 <.text+0x1240>
  404a59:	31 c0                	xor    %eax,%eax
  404a5b:	5b                   	pop    %ebx
  404a5c:	5e                   	pop    %esi
  404a5d:	c3                   	ret    
  404a5e:	66 90                	xchg   %ax,%ax
  404a60:	83 c3 01             	add    $0x1,%ebx
  404a63:	31 d2                	xor    %edx,%edx
  404a65:	eb 11                	jmp    404a78 <.text+0x1218>
  404a67:	89 f6                	mov    %esi,%esi
  404a69:	8d bc 27 00 00 00 00 	lea    0x0(%edi,%eiz,1),%edi
  404a70:	8d 14 92             	lea    (%edx,%edx,4),%edx
  404a73:	01 d2                	add    %edx,%edx
  404a75:	83 c3 01             	add    $0x1,%ebx
  404a78:	01 ca                	add    %ecx,%edx
  404a7a:	83 fa 10             	cmp    $0x10,%edx
  404a7d:	7f 26                	jg     404aa5 <.text+0x1245>
  404a7f:	89 18                	mov    %ebx,(%eax)
  404a81:	0f b6 33             	movzbl (%ebx),%esi
  404a84:	89 f1                	mov    %esi,%ecx
  404a86:	0f be c9             	movsbl %cl,%ecx
  404a89:	83 e9 30             	sub    $0x30,%ecx
  404a8c:	83 f9 09             	cmp    $0x9,%ecx
  404a8f:	77 31                	ja     404ac2 <.text+0x1262>
  404a91:	85 d2                	test   %edx,%edx
  404a93:	7f db                	jg     404a70 <.text+0x1210>
  404a95:	31 d2                	xor    %edx,%edx
  404a97:	eb dc                	jmp    404a75 <.text+0x1215>
  404a99:	8d b4 26 00 00 00 00 	lea    0x0(%esi,%eiz,1),%esi
  404aa0:	89 d0                	mov    %edx,%eax
  404aa2:	5b                   	pop    %ebx
  404aa3:	5e                   	pop    %esi
  404aa4:	c3                   	ret    
  404aa5:	8b 10                	mov    (%eax),%edx
  404aa7:	89 f6                	mov    %esi,%esi
  404aa9:	8d bc 27 00 00 00 00 	lea    0x0(%edi,%eiz,1),%edi
  404ab0:	83 c2 01             	add    $0x1,%edx
  404ab3:	89 10                	mov    %edx,(%eax)
  404ab5:	0f be 0a             	movsbl (%edx),%ecx
  404ab8:	83 e9 30             	sub    $0x30,%ecx
  404abb:	83 f9 09             	cmp    $0x9,%ecx
  404abe:	76 f0                	jbe    404ab0 <.text+0x1250>
  404ac0:	eb 97                	jmp    404a59 <.text+0x11f9>
  404ac2:	89 f0                	mov    %esi,%eax
  404ac4:	eb 8f                	jmp    404a55 <.text+0x11f5>
  404ac6:	8d 76 00             	lea    0x0(%esi),%esi
  404ac9:	8d bc 27 00 00 00 00 	lea    0x0(%edi,%eiz,1),%edi
  404ad0:	53                   	push   %ebx
  404ad1:	89 c3                	mov    %eax,%ebx
  404ad3:	83 ec 10             	sub    $0x10,%esp
  404ad6:	8b 00                	mov    (%eax),%eax
  404ad8:	89 44 24 0c          	mov    %eax,0xc(%esp)
  404adc:	8d 44 24 0c          	lea    0xc(%esp),%eax
  404ae0:	e8 5b ff ff ff       	call   404a40 <.text+0x11e0>
  404ae5:	8b 54 24 0c          	mov    0xc(%esp),%edx
  404ae9:	8d 4a 01             	lea    0x1(%edx),%ecx
  404aec:	89 4c 24 0c          	mov    %ecx,0xc(%esp)
  404af0:	80 3a 24             	cmpb   $0x24,(%edx)
  404af3:	75 02                	jne    404af7 <.text+0x1297>
  404af5:	89 0b                	mov    %ecx,(%ebx)
  404af7:	83 c4 10             	add    $0x10,%esp
  404afa:	5b                   	pop    %ebx
  404afb:	c3                   	ret    
  404afc:	8d 74 26 00          	lea    0x0(%esi,%eiz,1),%esi
  404b00:	53                   	push   %ebx
  404b01:	89 c3                	mov    %eax,%ebx
  404b03:	83 ec 18             	sub    $0x18,%esp
  404b06:	0f b6 00             	movzbl (%eax),%eax
